
.\rom_0x08000000.elf:     file format elf32-littlearm
.\rom_0x08000000.elf
architecture: armv7e-m, flags 0x00000112:
EXEC_P, HAS_SYMS, D_PAGED
start address 0x08000000

Program Header:
0x70000001 off    0x00006344 vaddr 0x08005344 paddr 0x08005344 align 2**2
         filesz 0x00000008 memsz 0x00000008 flags r--
    LOAD off    0x00001000 vaddr 0x08000000 paddr 0x08000000 align 2**12
         filesz 0x00005770 memsz 0x00005770 flags r-x
    LOAD off    0x00007000 vaddr 0x20000000 paddr 0x08005770 align 2**12
         filesz 0x000001cc memsz 0x00000324 flags rw-
private flags = 0x5000400: [Version5 EABI] [hard-float ABI]

Sections:
Idx Name          Size      VMA       LMA       File off  Algn
  0 .text         00001b20  08000000  08000000  00001000  2**4
                  CONTENTS, ALLOC, LOAD, READONLY, CODE
  1 .text.__cvt   000000be  08001b20  08001b20  00002b20  2**1
                  CONTENTS, ALLOC, LOAD, READONLY, CODE
  2 .text.__exponent 00000076  08001bde  08001bde  00002bde  2**1
                  CONTENTS, ALLOC, LOAD, READONLY, CODE
  3 .text._printf_float 00000448  08001c54  08001c54  00002c54  2**2
                  CONTENTS, ALLOC, LOAD, READONLY, CODE
  4 .text._printf_common 000000ea  0800209c  0800209c  0000309c  2**1
                  CONTENTS, ALLOC, LOAD, READONLY, CODE
  5 .text._printf_i 00000254  08002188  08002188  00003188  2**2
                  CONTENTS, ALLOC, LOAD, READONLY, CODE
  6 .text._printf_r 0000001c  080023dc  080023dc  000033dc  2**1
                  CONTENTS, ALLOC, LOAD, READONLY, CODE
  7 .text.printf  00000024  080023f8  080023f8  000033f8  2**2
                  CONTENTS, ALLOC, LOAD, READONLY, CODE
  8 .text.setvbuf 00000168  0800241c  0800241c  0000341c  2**2
                  CONTENTS, ALLOC, LOAD, READONLY, CODE
  9 .text._vsprintf_r 0000002c  08002584  08002584  00003584  2**2
                  CONTENTS, ALLOC, LOAD, READONLY, CODE
 10 .text.vsprintf 00000014  080025b0  080025b0  000035b0  2**2
                  CONTENTS, ALLOC, LOAD, READONLY, CODE
 11 .text.__localeconv_l 00000004  080025c4  080025c4  000035c4  2**1
                  CONTENTS, ALLOC, LOAD, READONLY, CODE
 12 .text._localeconv_r 00000008  080025c8  080025c8  000035c8  2**2
                  CONTENTS, ALLOC, LOAD, READONLY, CODE
 13 .text.localeconv 00000008  080025d0  080025d0  000035d0  2**2
                  CONTENTS, ALLOC, LOAD, READONLY, CODE
 14 .text.__errno 0000000c  080025d8  080025d8  000035d8  2**2
                  CONTENTS, ALLOC, LOAD, READONLY, CODE
 15 .text.__retarget_lock_init 00000002  080025e4  080025e4  000035e4  2**1
                  CONTENTS, ALLOC, LOAD, READONLY, CODE
 16 .text.__retarget_lock_init_recursive 00000002  080025e6  080025e6  000035e6  2**1
                  CONTENTS, ALLOC, LOAD, READONLY, CODE
 17 .text.__retarget_lock_close 00000002  080025e8  080025e8  000035e8  2**1
                  CONTENTS, ALLOC, LOAD, READONLY, CODE
 18 .text.__retarget_lock_close_recursive 00000002  080025ea  080025ea  000035ea  2**1
                  CONTENTS, ALLOC, LOAD, READONLY, CODE
 19 .text.__retarget_lock_acquire 00000002  080025ec  080025ec  000035ec  2**1
                  CONTENTS, ALLOC, LOAD, READONLY, CODE
 20 .text.__retarget_lock_acquire_recursive 00000002  080025ee  080025ee  000035ee  2**1
                  CONTENTS, ALLOC, LOAD, READONLY, CODE
 21 .text.__retarget_lock_try_acquire 00000004  080025f0  080025f0  000035f0  2**1
                  CONTENTS, ALLOC, LOAD, READONLY, CODE
 22 .text.__retarget_lock_try_acquire_recursive 00000004  080025f4  080025f4  000035f4  2**1
                  CONTENTS, ALLOC, LOAD, READONLY, CODE
 23 .text.__retarget_lock_release 00000002  080025f8  080025f8  000035f8  2**1
                  CONTENTS, ALLOC, LOAD, READONLY, CODE
 24 .text.__retarget_lock_release_recursive 00000002  080025fa  080025fa  000035fa  2**1
                  CONTENTS, ALLOC, LOAD, READONLY, CODE
 25 .text.quorem  00000110  080025fc  080025fc  000035fc  2**1
                  CONTENTS, ALLOC, LOAD, READONLY, CODE
 26 .text._dtoa_r 00000bac  08002710  08002710  00003710  2**3
                  CONTENTS, ALLOC, LOAD, READONLY, CODE
 27 .text._free_r 00000098  080032bc  080032bc  000042bc  2**2
                  CONTENTS, ALLOC, LOAD, READONLY, CODE
 28 .text.malloc  00000010  08003354  08003354  00004354  2**2
                  CONTENTS, ALLOC, LOAD, READONLY, CODE
 29 .text.free    00000010  08003364  08003364  00004364  2**2
                  CONTENTS, ALLOC, LOAD, READONLY, CODE
 30 .text.sbrk_aligned 00000044  08003374  08003374  00004374  2**2
                  CONTENTS, ALLOC, LOAD, READONLY, CODE
 31 .text._malloc_r 000000f8  080033b8  080033b8  000043b8  2**2
                  CONTENTS, ALLOC, LOAD, READONLY, CODE
 32 .text.__malloc_lock 0000000c  080034b0  080034b0  000044b0  2**2
                  CONTENTS, ALLOC, LOAD, READONLY, CODE
 33 .text.__malloc_unlock 0000000c  080034bc  080034bc  000044bc  2**2
                  CONTENTS, ALLOC, LOAD, READONLY, CODE
 34 .text._Balloc 0000007c  080034c8  080034c8  000044c8  2**2
                  CONTENTS, ALLOC, LOAD, READONLY, CODE
 35 .text._Bfree  00000044  08003544  08003544  00004544  2**2
                  CONTENTS, ALLOC, LOAD, READONLY, CODE
 36 .text.__multadd 0000008c  08003588  08003588  00004588  2**2
                  CONTENTS, ALLOC, LOAD, READONLY, CODE
 37 .text.__s2b   00000094  08003614  08003614  00004614  2**2
                  CONTENTS, ALLOC, LOAD, READONLY, CODE
 38 .text.__hi0bits 0000003c  080036a8  080036a8  000046a8  2**1
                  CONTENTS, ALLOC, LOAD, READONLY, CODE
 39 .text.__lo0bits 0000005c  080036e4  080036e4  000046e4  2**1
                  CONTENTS, ALLOC, LOAD, READONLY, CODE
 40 .text.__i2b   0000002c  08003740  08003740  00004740  2**2
                  CONTENTS, ALLOC, LOAD, READONLY, CODE
 41 .text.__multiply 0000016c  0800376c  0800376c  0000476c  2**2
                  CONTENTS, ALLOC, LOAD, READONLY, CODE
 42 .text.__pow5mult 000000b8  080038d8  080038d8  000048d8  2**2
                  CONTENTS, ALLOC, LOAD, READONLY, CODE
 43 .text.__lshift 000000e4  08003990  08003990  00004990  2**2
                  CONTENTS, ALLOC, LOAD, READONLY, CODE
 44 .text.__mcmp  00000036  08003a74  08003a74  00004a74  2**1
                  CONTENTS, ALLOC, LOAD, READONLY, CODE
 45 .text.__mdiff 00000130  08003aac  08003aac  00004aac  2**2
                  CONTENTS, ALLOC, LOAD, READONLY, CODE
 46 .text.__ulp   0000004c  08003bdc  08003bdc  00004bdc  2**2
                  CONTENTS, ALLOC, LOAD, READONLY, CODE
 47 .text.__b2d   00000092  08003c28  08003c28  00004c28  2**1
                  CONTENTS, ALLOC, LOAD, READONLY, CODE
 48 .text.__d2b   000000b0  08003cbc  08003cbc  00004cbc  2**2
                  CONTENTS, ALLOC, LOAD, READONLY, CODE
 49 .text.__ratio 00000062  08003d6c  08003d6c  00004d6c  2**1
                  CONTENTS, ALLOC, LOAD, READONLY, CODE
 50 .text._mprec_log10 0000003c  08003dd0  08003dd0  00004dd0  2**2
                  CONTENTS, ALLOC, LOAD, READONLY, CODE
 51 .text.__copybits 00000046  08003e0c  08003e0c  00004e0c  2**1
                  CONTENTS, ALLOC, LOAD, READONLY, CODE
 52 .text.__any_on 00000042  08003e52  08003e52  00004e52  2**1
                  CONTENTS, ALLOC, LOAD, READONLY, CODE
 53 .text.__ssputs_r 000000c0  08003e94  08003e94  00004e94  2**1
                  CONTENTS, ALLOC, LOAD, READONLY, CODE
 54 .text.__ssprint_r 000000f4  08003f54  08003f54  00004f54  2**1
                  CONTENTS, ALLOC, LOAD, READONLY, CODE
 55 .text._svfprintf_r 000001f0  08004048  08004048  00005048  2**2
                  CONTENTS, ALLOC, LOAD, READONLY, CODE
 56 .text.__sfputc_r 0000002a  08004238  08004238  00005238  2**1
                  CONTENTS, ALLOC, LOAD, READONLY, CODE
 57 .text.__sfputs_r 00000024  08004262  08004262  00005262  2**1
                  CONTENTS, ALLOC, LOAD, READONLY, CODE
 58 .text.__sprint_r 0000001a  08004286  08004286  00005286  2**1
                  CONTENTS, ALLOC, LOAD, READONLY, CODE
 59 .text._vfprintf_r 00000228  080042a0  080042a0  000052a0  2**2
                  CONTENTS, ALLOC, LOAD, READONLY, CODE
 60 .text.vfprintf 00000014  080044c8  080044c8  000054c8  2**2
                  CONTENTS, ALLOC, LOAD, READONLY, CODE
 61 .text.__sflush_r 00000100  080044dc  080044dc  000054dc  2**2
                  CONTENTS, ALLOC, LOAD, READONLY, CODE
 62 .text._fflush_r 00000050  080045dc  080045dc  000055dc  2**1
                  CONTENTS, ALLOC, LOAD, READONLY, CODE
 63 .text.fflush  00000028  0800462c  0800462c  0000562c  2**2
                  CONTENTS, ALLOC, LOAD, READONLY, CODE
 64 .text.std     0000006c  08004654  08004654  00005654  2**2
                  CONTENTS, ALLOC, LOAD, READONLY, CODE
 65 .text.stdio_exit_handler 00000018  080046c0  080046c0  000056c0  2**2
                  CONTENTS, ALLOC, LOAD, READONLY, CODE
 66 .text.cleanup_stdio 00000040  080046d8  080046d8  000056d8  2**2
                  CONTENTS, ALLOC, LOAD, READONLY, CODE
 67 .text.__fp_lock 00000018  08004718  08004718  00005718  2**1
                  CONTENTS, ALLOC, LOAD, READONLY, CODE
 68 .text.__fp_unlock 00000018  08004730  08004730  00005730  2**1
                  CONTENTS, ALLOC, LOAD, READONLY, CODE
 69 .text.global_stdio_init.part.0 00000040  08004748  08004748  00005748  2**2
                  CONTENTS, ALLOC, LOAD, READONLY, CODE
 70 .text.__sfp_lock_acquire 0000000c  08004788  08004788  00005788  2**2
                  CONTENTS, ALLOC, LOAD, READONLY, CODE
 71 .text.__sfp_lock_release 0000000c  08004794  08004794  00005794  2**2
                  CONTENTS, ALLOC, LOAD, READONLY, CODE
 72 .text.__sfp   000000a4  080047a0  080047a0  000057a0  2**2
                  CONTENTS, ALLOC, LOAD, READONLY, CODE
 73 .text.__sinit 00000030  08004844  08004844  00005844  2**2
                  CONTENTS, ALLOC, LOAD, READONLY, CODE
 74 .text.__fp_lock_all 0000001c  08004874  08004874  00005874  2**2
                  CONTENTS, ALLOC, LOAD, READONLY, CODE
 75 .text.__fp_unlock_all 0000001c  08004890  08004890  00005890  2**2
                  CONTENTS, ALLOC, LOAD, READONLY, CODE
 76 .text.__sfvwrite_r 000002a0  080048ac  080048ac  000058ac  2**2
                  CONTENTS, ALLOC, LOAD, READONLY, CODE
 77 .text._fwalk_sglue 0000003a  08004b4c  08004b4c  00005b4c  2**1
                  CONTENTS, ALLOC, LOAD, READONLY, CODE
 78 .text.__swhatbuf_r 00000048  08004b86  08004b86  00005b86  2**1
                  CONTENTS, ALLOC, LOAD, READONLY, CODE
 79 .text.__smakebuf_r 00000072  08004bce  08004bce  00005bce  2**1
                  CONTENTS, ALLOC, LOAD, READONLY, CODE
 80 .text.__sread 00000022  08004c40  08004c40  00005c40  2**1
                  CONTENTS, ALLOC, LOAD, READONLY, CODE
 81 .text.__seofread 00000004  08004c62  08004c62  00005c62  2**1
                  CONTENTS, ALLOC, LOAD, READONLY, CODE
 82 .text.__swrite 00000038  08004c66  08004c66  00005c66  2**1
                  CONTENTS, ALLOC, LOAD, READONLY, CODE
 83 .text.__sseek 00000026  08004c9e  08004c9e  00005c9e  2**1
                  CONTENTS, ALLOC, LOAD, READONLY, CODE
 84 .text.__sclose 00000008  08004cc4  08004cc4  00005cc4  2**1
                  CONTENTS, ALLOC, LOAD, READONLY, CODE
 85 .text.__swbuf_r 0000007a  08004ccc  08004ccc  00005ccc  2**1
                  CONTENTS, ALLOC, LOAD, READONLY, CODE
 86 .text.__swbuf 00000010  08004d48  08004d48  00005d48  2**2
                  CONTENTS, ALLOC, LOAD, READONLY, CODE
 87 .text.__swsetup_r 000000a8  08004d58  08004d58  00005d58  2**2
                  CONTENTS, ALLOC, LOAD, READONLY, CODE
 88 .text.memmove 00000032  08004e00  08004e00  00005e00  2**1
                  CONTENTS, ALLOC, LOAD, READONLY, CODE
 89 .text.memset  00000010  08004e32  08004e32  00005e32  2**1
                  CONTENTS, ALLOC, LOAD, READONLY, CODE
 90 .text._setlocale_r 0000003c  08004e44  08004e44  00005e44  2**2
                  CONTENTS, ALLOC, LOAD, READONLY, CODE
 91 .text.__locale_mb_cur_max 0000000c  08004e80  08004e80  00005e80  2**2
                  CONTENTS, ALLOC, LOAD, READONLY, CODE
 92 .text.setlocale 00000010  08004e8c  08004e8c  00005e8c  2**2
                  CONTENTS, ALLOC, LOAD, READONLY, CODE
 93 .text._close_r 00000020  08004e9c  08004e9c  00005e9c  2**2
                  CONTENTS, ALLOC, LOAD, READONLY, CODE
 94 .text._reclaim_reent 000000bc  08004ebc  08004ebc  00005ebc  2**2
                  CONTENTS, ALLOC, LOAD, READONLY, CODE
 95 .text._fstat_r 00000024  08004f78  08004f78  00005f78  2**2
                  CONTENTS, ALLOC, LOAD, READONLY, CODE
 96 .text._isatty_r 00000020  08004f9c  08004f9c  00005f9c  2**2
                  CONTENTS, ALLOC, LOAD, READONLY, CODE
 97 .text._lseek_r 00000024  08004fbc  08004fbc  00005fbc  2**2
                  CONTENTS, ALLOC, LOAD, READONLY, CODE
 98 .text._read_r 00000024  08004fe0  08004fe0  00005fe0  2**2
                  CONTENTS, ALLOC, LOAD, READONLY, CODE
 99 .text._sbrk_r 00000020  08005004  08005004  00006004  2**2
                  CONTENTS, ALLOC, LOAD, READONLY, CODE
100 .text._write_r 00000024  08005024  08005024  00006024  2**2
                  CONTENTS, ALLOC, LOAD, READONLY, CODE
101 .text.memcpy  0000001c  08005048  08005048  00006048  2**1
                  CONTENTS, ALLOC, LOAD, READONLY, CODE
102 .text.__assert_func 0000003c  08005064  08005064  00006064  2**2
                  CONTENTS, ALLOC, LOAD, READONLY, CODE
103 .text.__assert 0000000a  080050a0  080050a0  000060a0  2**1
                  CONTENTS, ALLOC, LOAD, READONLY, CODE
104 .text._calloc_r 00000028  080050aa  080050aa  000060aa  2**1
                  CONTENTS, ALLOC, LOAD, READONLY, CODE
105 .text._mbtowc_r 00000010  080050d4  080050d4  000060d4  2**2
                  CONTENTS, ALLOC, LOAD, READONLY, CODE
106 .text.__ascii_mbtowc 00000024  080050e4  080050e4  000060e4  2**1
                  CONTENTS, ALLOC, LOAD, READONLY, CODE
107 .text._realloc_r 0000005c  08005108  08005108  00006108  2**1
                  CONTENTS, ALLOC, LOAD, READONLY, CODE
108 .text._wctomb_r 00000010  08005164  08005164  00006164  2**2
                  CONTENTS, ALLOC, LOAD, READONLY, CODE
109 .text.__ascii_wctomb 0000001a  08005174  08005174  00006174  2**1
                  CONTENTS, ALLOC, LOAD, READONLY, CODE
110 .text._fprintf_r 0000001a  0800518e  0800518e  0000618e  2**1
                  CONTENTS, ALLOC, LOAD, READONLY, CODE
111 .text.fprintf 00000024  080051a8  080051a8  000061a8  2**2
                  CONTENTS, ALLOC, LOAD, READONLY, CODE
112 .text.abort   0000000e  080051cc  080051cc  000061cc  2**1
                  CONTENTS, ALLOC, LOAD, READONLY, CODE
113 .text._malloc_usable_size_r 00000010  080051da  080051da  000061da  2**1
                  CONTENTS, ALLOC, LOAD, READONLY, CODE
114 .text._init_signal_r 00000028  080051ea  080051ea  000061ea  2**1
                  CONTENTS, ALLOC, LOAD, READONLY, CODE
115 .text._signal_r 00000030  08005212  08005212  00006212  2**1
                  CONTENTS, ALLOC, LOAD, READONLY, CODE
116 .text._raise_r 00000050  08005242  08005242  00006242  2**1
                  CONTENTS, ALLOC, LOAD, READONLY, CODE
117 .text.__sigtramp_r 00000048  08005292  08005292  00006292  2**1
                  CONTENTS, ALLOC, LOAD, READONLY, CODE
118 .text.raise   00000010  080052dc  080052dc  000062dc  2**2
                  CONTENTS, ALLOC, LOAD, READONLY, CODE
119 .text.signal  00000010  080052ec  080052ec  000062ec  2**2
                  CONTENTS, ALLOC, LOAD, READONLY, CODE
120 .text._init_signal 0000000c  080052fc  080052fc  000062fc  2**2
                  CONTENTS, ALLOC, LOAD, READONLY, CODE
121 .text.__sigtramp 00000010  08005308  08005308  00006308  2**2
                  CONTENTS, ALLOC, LOAD, READONLY, CODE
122 .text._kill_r 00000024  08005318  08005318  00006318  2**2
                  CONTENTS, ALLOC, LOAD, READONLY, CODE
123 .text._getpid_r 00000004  0800533c  0800533c  0000633c  2**1
                  CONTENTS, ALLOC, LOAD, READONLY, CODE
124 .text._exit   00000004  08005340  08005340  00006340  2**2
                  CONTENTS, ALLOC, LOAD, READONLY, CODE
125 .ARM.extab    00000000  08005344  08005344  00006344  2**0
                  CONTENTS, ALLOC, LOAD, READONLY, DATA
126 .ARM.exidx    00000008  08005344  08005344  00006344  2**2
                  CONTENTS, ALLOC, LOAD, READONLY, DATA
127 .rodata       00000420  08005350  08005350  00006350  2**3
                  CONTENTS, ALLOC, LOAD, READONLY, DATA
128 .data         000001cc  20000000  08005770  00007000  2**2
                  CONTENTS, ALLOC, LOAD, DATA
129 .bss          00000158  200001cc  0800593c  000071cc  2**2
                  ALLOC
130 .debug_info   000045f0  00000000  00000000  000071cc  2**0
                  CONTENTS, READONLY, DEBUGGING, OCTETS
131 .debug_abbrev 00001374  00000000  00000000  0000b7bc  2**0
                  CONTENTS, READONLY, DEBUGGING, OCTETS
132 .debug_aranges 000001a0  00000000  00000000  0000cb30  2**3
                  CONTENTS, READONLY, DEBUGGING, OCTETS
133 .debug_line   00001f33  00000000  00000000  0000ccd0  2**0
                  CONTENTS, READONLY, DEBUGGING, OCTETS
134 .debug_str    0000110d  00000000  00000000  0000ec03  2**0
                  CONTENTS, READONLY, DEBUGGING, OCTETS
135 .comment      00000045  00000000  00000000  0000fd10  2**0
                  CONTENTS, READONLY
136 .ARM.attributes 00000032  00000000  00000000  0000fd55  2**0
                  CONTENTS, READONLY
137 .debug_frame  00001808  00000000  00000000  0000fd88  2**2
                  CONTENTS, READONLY, DEBUGGING, OCTETS
138 .debug_loclists 00000709  00000000  00000000  00011590  2**0
                  CONTENTS, READONLY, DEBUGGING, OCTETS
139 .debug_rnglists 000000c6  00000000  00000000  00011c99  2**0
                  CONTENTS, READONLY, DEBUGGING, OCTETS
140 .debug_line_str 000001ff  00000000  00000000  00011d5f  2**0
                  CONTENTS, READONLY, DEBUGGING, OCTETS
SYMBOL TABLE:
08000000 l    d  .text	00000000 .text
08001b20 l    d  .text.__cvt	00000000 .text.__cvt
08001bde l    d  .text.__exponent	00000000 .text.__exponent
08001c54 l    d  .text._printf_float	00000000 .text._printf_float
0800209c l    d  .text._printf_common	00000000 .text._printf_common
08002188 l    d  .text._printf_i	00000000 .text._printf_i
080023dc l    d  .text._printf_r	00000000 .text._printf_r
080023f8 l    d  .text.printf	00000000 .text.printf
0800241c l    d  .text.setvbuf	00000000 .text.setvbuf
08002584 l    d  .text._vsprintf_r	00000000 .text._vsprintf_r
080025b0 l    d  .text.vsprintf	00000000 .text.vsprintf
080025c4 l    d  .text.__localeconv_l	00000000 .text.__localeconv_l
080025c8 l    d  .text._localeconv_r	00000000 .text._localeconv_r
080025d0 l    d  .text.localeconv	00000000 .text.localeconv
080025d8 l    d  .text.__errno	00000000 .text.__errno
080025e4 l    d  .text.__retarget_lock_init	00000000 .text.__retarget_lock_init
080025e6 l    d  .text.__retarget_lock_init_recursive	00000000 .text.__retarget_lock_init_recursive
080025e8 l    d  .text.__retarget_lock_close	00000000 .text.__retarget_lock_close
080025ea l    d  .text.__retarget_lock_close_recursive	00000000 .text.__retarget_lock_close_recursive
080025ec l    d  .text.__retarget_lock_acquire	00000000 .text.__retarget_lock_acquire
080025ee l    d  .text.__retarget_lock_acquire_recursive	00000000 .text.__retarget_lock_acquire_recursive
080025f0 l    d  .text.__retarget_lock_try_acquire	00000000 .text.__retarget_lock_try_acquire
080025f4 l    d  .text.__retarget_lock_try_acquire_recursive	00000000 .text.__retarget_lock_try_acquire_recursive
080025f8 l    d  .text.__retarget_lock_release	00000000 .text.__retarget_lock_release
080025fa l    d  .text.__retarget_lock_release_recursive	00000000 .text.__retarget_lock_release_recursive
080025fc l    d  .text.quorem	00000000 .text.quorem
08002710 l    d  .text._dtoa_r	00000000 .text._dtoa_r
080032bc l    d  .text._free_r	00000000 .text._free_r
08003354 l    d  .text.malloc	00000000 .text.malloc
08003364 l    d  .text.free	00000000 .text.free
08003374 l    d  .text.sbrk_aligned	00000000 .text.sbrk_aligned
080033b8 l    d  .text._malloc_r	00000000 .text._malloc_r
080034b0 l    d  .text.__malloc_lock	00000000 .text.__malloc_lock
080034bc l    d  .text.__malloc_unlock	00000000 .text.__malloc_unlock
080034c8 l    d  .text._Balloc	00000000 .text._Balloc
08003544 l    d  .text._Bfree	00000000 .text._Bfree
08003588 l    d  .text.__multadd	00000000 .text.__multadd
08003614 l    d  .text.__s2b	00000000 .text.__s2b
080036a8 l    d  .text.__hi0bits	00000000 .text.__hi0bits
080036e4 l    d  .text.__lo0bits	00000000 .text.__lo0bits
08003740 l    d  .text.__i2b	00000000 .text.__i2b
0800376c l    d  .text.__multiply	00000000 .text.__multiply
080038d8 l    d  .text.__pow5mult	00000000 .text.__pow5mult
08003990 l    d  .text.__lshift	00000000 .text.__lshift
08003a74 l    d  .text.__mcmp	00000000 .text.__mcmp
08003aac l    d  .text.__mdiff	00000000 .text.__mdiff
08003bdc l    d  .text.__ulp	00000000 .text.__ulp
08003c28 l    d  .text.__b2d	00000000 .text.__b2d
08003cbc l    d  .text.__d2b	00000000 .text.__d2b
08003d6c l    d  .text.__ratio	00000000 .text.__ratio
08003dd0 l    d  .text._mprec_log10	00000000 .text._mprec_log10
08003e0c l    d  .text.__copybits	00000000 .text.__copybits
08003e52 l    d  .text.__any_on	00000000 .text.__any_on
08003e94 l    d  .text.__ssputs_r	00000000 .text.__ssputs_r
08003f54 l    d  .text.__ssprint_r	00000000 .text.__ssprint_r
08004048 l    d  .text._svfprintf_r	00000000 .text._svfprintf_r
08004238 l    d  .text.__sfputc_r	00000000 .text.__sfputc_r
08004262 l    d  .text.__sfputs_r	00000000 .text.__sfputs_r
08004286 l    d  .text.__sprint_r	00000000 .text.__sprint_r
080042a0 l    d  .text._vfprintf_r	00000000 .text._vfprintf_r
080044c8 l    d  .text.vfprintf	00000000 .text.vfprintf
080044dc l    d  .text.__sflush_r	00000000 .text.__sflush_r
080045dc l    d  .text._fflush_r	00000000 .text._fflush_r
0800462c l    d  .text.fflush	00000000 .text.fflush
08004654 l    d  .text.std	00000000 .text.std
080046c0 l    d  .text.stdio_exit_handler	00000000 .text.stdio_exit_handler
080046d8 l    d  .text.cleanup_stdio	00000000 .text.cleanup_stdio
08004718 l    d  .text.__fp_lock	00000000 .text.__fp_lock
08004730 l    d  .text.__fp_unlock	00000000 .text.__fp_unlock
08004748 l    d  .text.global_stdio_init.part.0	00000000 .text.global_stdio_init.part.0
08004788 l    d  .text.__sfp_lock_acquire	00000000 .text.__sfp_lock_acquire
08004794 l    d  .text.__sfp_lock_release	00000000 .text.__sfp_lock_release
080047a0 l    d  .text.__sfp	00000000 .text.__sfp
08004844 l    d  .text.__sinit	00000000 .text.__sinit
08004874 l    d  .text.__fp_lock_all	00000000 .text.__fp_lock_all
08004890 l    d  .text.__fp_unlock_all	00000000 .text.__fp_unlock_all
080048ac l    d  .text.__sfvwrite_r	00000000 .text.__sfvwrite_r
08004b4c l    d  .text._fwalk_sglue	00000000 .text._fwalk_sglue
08004b86 l    d  .text.__swhatbuf_r	00000000 .text.__swhatbuf_r
08004bce l    d  .text.__smakebuf_r	00000000 .text.__smakebuf_r
08004c40 l    d  .text.__sread	00000000 .text.__sread
08004c62 l    d  .text.__seofread	00000000 .text.__seofread
08004c66 l    d  .text.__swrite	00000000 .text.__swrite
08004c9e l    d  .text.__sseek	00000000 .text.__sseek
08004cc4 l    d  .text.__sclose	00000000 .text.__sclose
08004ccc l    d  .text.__swbuf_r	00000000 .text.__swbuf_r
08004d48 l    d  .text.__swbuf	00000000 .text.__swbuf
08004d58 l    d  .text.__swsetup_r	00000000 .text.__swsetup_r
08004e00 l    d  .text.memmove	00000000 .text.memmove
08004e32 l    d  .text.memset	00000000 .text.memset
08004e44 l    d  .text._setlocale_r	00000000 .text._setlocale_r
08004e80 l    d  .text.__locale_mb_cur_max	00000000 .text.__locale_mb_cur_max
08004e8c l    d  .text.setlocale	00000000 .text.setlocale
08004e9c l    d  .text._close_r	00000000 .text._close_r
08004ebc l    d  .text._reclaim_reent	00000000 .text._reclaim_reent
08004f78 l    d  .text._fstat_r	00000000 .text._fstat_r
08004f9c l    d  .text._isatty_r	00000000 .text._isatty_r
08004fbc l    d  .text._lseek_r	00000000 .text._lseek_r
08004fe0 l    d  .text._read_r	00000000 .text._read_r
08005004 l    d  .text._sbrk_r	00000000 .text._sbrk_r
08005024 l    d  .text._write_r	00000000 .text._write_r
08005048 l    d  .text.memcpy	00000000 .text.memcpy
08005064 l    d  .text.__assert_func	00000000 .text.__assert_func
080050a0 l    d  .text.__assert	00000000 .text.__assert
080050aa l    d  .text._calloc_r	00000000 .text._calloc_r
080050d4 l    d  .text._mbtowc_r	00000000 .text._mbtowc_r
080050e4 l    d  .text.__ascii_mbtowc	00000000 .text.__ascii_mbtowc
08005108 l    d  .text._realloc_r	00000000 .text._realloc_r
08005164 l    d  .text._wctomb_r	00000000 .text._wctomb_r
08005174 l    d  .text.__ascii_wctomb	00000000 .text.__ascii_wctomb
0800518e l    d  .text._fprintf_r	00000000 .text._fprintf_r
080051a8 l    d  .text.fprintf	00000000 .text.fprintf
080051cc l    d  .text.abort	00000000 .text.abort
080051da l    d  .text._malloc_usable_size_r	00000000 .text._malloc_usable_size_r
080051ea l    d  .text._init_signal_r	00000000 .text._init_signal_r
08005212 l    d  .text._signal_r	00000000 .text._signal_r
08005242 l    d  .text._raise_r	00000000 .text._raise_r
08005292 l    d  .text.__sigtramp_r	00000000 .text.__sigtramp_r
080052dc l    d  .text.raise	00000000 .text.raise
080052ec l    d  .text.signal	00000000 .text.signal
080052fc l    d  .text._init_signal	00000000 .text._init_signal
08005308 l    d  .text.__sigtramp	00000000 .text.__sigtramp
08005318 l    d  .text._kill_r	00000000 .text._kill_r
0800533c l    d  .text._getpid_r	00000000 .text._getpid_r
08005340 l    d  .text._exit	00000000 .text._exit
08005344 l    d  .ARM.extab	00000000 .ARM.extab
08005344 l    d  .ARM.exidx	00000000 .ARM.exidx
08005350 l    d  .rodata	00000000 .rodata
20000000 l    d  .data	00000000 .data
200001cc l    d  .bss	00000000 .bss
00000000 l    d  .debug_info	00000000 .debug_info
00000000 l    d  .debug_abbrev	00000000 .debug_abbrev
00000000 l    d  .debug_aranges	00000000 .debug_aranges
00000000 l    d  .debug_line	00000000 .debug_line
00000000 l    d  .debug_str	00000000 .debug_str
00000000 l    d  .comment	00000000 .comment
00000000 l    d  .ARM.attributes	00000000 .ARM.attributes
00000000 l    d  .debug_frame	00000000 .debug_frame
00000000 l    d  .debug_loclists	00000000 .debug_loclists
00000000 l    d  .debug_rnglists	00000000 .debug_rnglists
00000000 l    d  .debug_line_str	00000000 .debug_line_str
00000000 l    df *ABS*	00000000 crt0.o
4002001c l       *ABS*	00000000 GPIOA_LCKR
40023830 l       *ABS*	00000000 RCC_AHB1ENR
00000000 l    df *ABS*	00000000 clock.c
00000000 l    df *ABS*	00000000 exception.c
00000000 l    df *ABS*	00000000 i2c.c
00000000 l    df *ABS*	00000000 key.c
00000000 l    df *ABS*	00000000 led.c
00000000 l    df *ABS*	00000000 main.c
00000000 l    df *ABS*	00000000 runtime.c
200001cc l     O .bss	00000004 heap.0
00000000 l    df *ABS*	00000000 spi.c
00000000 l    df *ABS*	00000000 system_stm32f4xx.c
00000000 l    df *ABS*	00000000 systick.c
00000000 l    df *ABS*	00000000 timer.c
00000000 l    df *ABS*	00000000 uart.c
00000000 l    df *ABS*	00000000 nano-vfprintf_float.c
00000000 l    df *ABS*	00000000 nano-vfprintf_i.c
00000000 l    df *ABS*	00000000 printf.c
00000000 l    df *ABS*	00000000 setvbuf.c
00000000 l    df *ABS*	00000000 vsprintf.c
00000000 l    df *ABS*	00000000 localeconv.c
00000000 l    df *ABS*	00000000 impure.c
00000000 l    df *ABS*	00000000 errno.c
00000000 l    df *ABS*	00000000 lock.c
00000000 l    df *ABS*	00000000 libc_a-memchr.o
00000000 l    df *ABS*	00000000 libc_a-strlen.o
00000000 l    df *ABS*	00000000 dtoa.c
080025fc l     F .text.quorem	00000110 quorem
00000000 l    df *ABS*	00000000 freer.c
00000000 l    df *ABS*	00000000 malloc.c
00000000 l    df *ABS*	00000000 mallocr.c
08003374 l     F .text.sbrk_aligned	00000044 sbrk_aligned
00000000 l    df *ABS*	00000000 mlock.c
00000000 l    df *ABS*	00000000 mprec.c
08005540 l     O .rodata	0000000c p05.0
00000000 l    df *ABS*	00000000 nano-svfprintf.c
00000000 l    df *ABS*	00000000 nano-vfprintf.c
08004238 l     F .text.__sfputc_r	0000002a __sfputc_r
00000000 l    df *ABS*	00000000 fflush.c
00000000 l    df *ABS*	00000000 findfp.c
08004654 l     F .text.std	0000006c std
080046c0 l     F .text.stdio_exit_handler	00000018 stdio_exit_handler
080046d8 l     F .text.cleanup_stdio	00000040 cleanup_stdio
08004718 l     F .text.__fp_lock	00000018 __fp_lock
08004730 l     F .text.__fp_unlock	00000018 __fp_unlock
08004748 l     F .text.global_stdio_init.part.0	00000040 global_stdio_init.part.0
00000000 l    df *ABS*	00000000 fvwrite.c
00000000 l    df *ABS*	00000000 fwalk.c
00000000 l    df *ABS*	00000000 makebuf.c
00000000 l    df *ABS*	00000000 stdio.c
00000000 l    df *ABS*	00000000 wbuf.c
00000000 l    df *ABS*	00000000 wsetup.c
00000000 l    df *ABS*	00000000 memmove.c
00000000 l    df *ABS*	00000000 memset.c
00000000 l    df *ABS*	00000000 locale.c
00000000 l    df *ABS*	00000000 closer.c
00000000 l    df *ABS*	00000000 reent.c
00000000 l    df *ABS*	00000000 fstatr.c
00000000 l    df *ABS*	00000000 isattyr.c
00000000 l    df *ABS*	00000000 lseekr.c
00000000 l    df *ABS*	00000000 readr.c
00000000 l    df *ABS*	00000000 sbrkr.c
00000000 l    df *ABS*	00000000 writer.c
00000000 l    df *ABS*	00000000 libc_a-strcmp.o
00000000 l    df *ABS*	00000000 memcpy-stub.c
00000000 l    df *ABS*	00000000 assert.c
00000000 l    df *ABS*	00000000 callocr.c
00000000 l    df *ABS*	00000000 mbtowc_r.c
00000000 l    df *ABS*	00000000 reallocr.c
00000000 l    df *ABS*	00000000 wctomb_r.c
00000000 l    df *ABS*	00000000 ctype_.c
00000000 l    df *ABS*	00000000 fprintf.c
00000000 l    df *ABS*	00000000 abort.c
00000000 l    df *ABS*	00000000 msizer.c
00000000 l    df *ABS*	00000000 signal.c
00000000 l    df *ABS*	00000000 signalr.c
00000000 l    df *ABS*	00000000 _arm_muldf3.o
00000000 l    df *ABS*	00000000 _arm_addsubdf3.o
00000000 l    df *ABS*	00000000 _arm_muldivdf3.o
00000000 l    df *ABS*	00000000 _arm_cmpdf2.o
00000000 l    df *ABS*	00000000 _arm_unorddf2.o
00000000 l    df *ABS*	00000000 _arm_fixdfsi.o
00000000 l    df *ABS*	00000000 _arm_fixunsdfsi.o
00000000 l    df *ABS*	00000000 _exit.c
08000198  w    F .text	00000000 RTC_Alarm_IRQHandler
080051da g     F .text._malloc_usable_size_r	00000010 _malloc_usable_size_r
08001b20 g     F .text.__cvt	000000be __cvt
08000198  w    F .text	00000000 EXTI2_IRQHandler
08005360 g     O .rodata	00000008 APBPrescTable
08003dd0 g     F .text._mprec_log10	0000003c _mprec_log10
08001a64 g     F .text	0000002c .hidden __aeabi_dcmpun
08003e52 g     F .text.__any_on	00000042 __any_on
08004f9c g     F .text._isatty_r	00000020 _isatty_r
08005550 g     O .rodata	00000028 __mprec_tinytens
08001a28 g     F .text	00000012 .hidden __aeabi_dcmple
080003dc g     F .text	00000020 Key_Poll_Init
0800061c g     F .text	00000004 _getpid
08001964 g     F .text	0000007a .hidden __cmpdf2
08004fbc g     F .text._lseek_r	00000024 _lseek_r
08000198  w    F .text	00000000 DebugMon_Handler
08000198  w    F .text	00000000 SPI4_IRQHandler
08001964 g     F .text	0000007a .hidden __eqdf2
080014d4 g     F .text	0000005a .hidden __floatdidf
08005318 g     F .text._kill_r	00000024 _kill_r
080023f8 g     F .text.printf	00000024 printf
200001d6 g     O .bss	00000001 __lock___atexit_recursive_mutex
080025b0 g     F .text.vsprintf	00000014 vsprintf
08000198  w    F .text	00000000 TIM1_CC_IRQHandler
08005212 g     F .text._signal_r	00000030 _signal_r
08004c9e g     F .text.__sseek	00000026 __sseek
08004844 g     F .text.__sinit	00000030 __sinit
08000198  w    F .text	00000000 DMA2_Stream5_IRQHandler
08004ccc g     F .text.__swbuf_r	0000007a __swbuf_r
08000198  w    F .text	00000000 HardFault_Handler
08004e44 g     F .text._setlocale_r	0000003c _setlocale_r
08000198  w    F .text	00000000 DMA1_Stream5_IRQHandler
080034bc g     F .text.__malloc_unlock	0000000c __malloc_unlock
08000290 g     F .text	000000e4 I2C1_SC16IS752_Init
08000198  w    F .text	00000000 SysTick_Handler
200001d0 g     O .bss	00000001 __lock___arc4random_mutex
08000198  w    F .text	00000000 PVD_IRQHandler
08000198  w    F .text	00000000 SDIO_IRQHandler
08004e00 g     F .text.memmove	00000032 memmove
08000198  w    F .text	00000000 TAMP_STAMP_IRQHandler
08000198  w    F .text	00000000 PendSV_Handler
08000198  w    F .text	00000000 NMI_Handler
080034c8 g     F .text._Balloc	0000007c _Balloc
08000198  w    F .text	00000000 EXTI3_IRQHandler
08001954 g     F .text	0000008a .hidden __gtdf2
080025d8 g     F .text.__errno	0000000c __errno
080025e8 g     F .text.__retarget_lock_close	00000002 __retarget_lock_close
080025c4 g     F .text.__localeconv_l	00000004 __localeconv_l
20000318 g     O .bss	00000004 __stdio_exit_handler
08000198  w    F .text	00000000 TIM1_UP_TIM10_IRQHandler
08004f78 g     F .text._fstat_r	00000024 _fstat_r
20000320 g     O .bss	00000004 errno
08004c62 g     F .text.__seofread	00000004 __seofread
080019f0 g     F .text	00000010 .hidden __aeabi_cdcmple
080008c8 g     F .text	00000008 SysTick_Get_Load_Time
08000198  w    F .text	00000000 I2C3_ER_IRQHandler
08000500 g     F .text	000000a8 Main
080008e0 g     F .text	00000038 TIM2_Stopwatch_Start
08005048 g     F .text.memcpy	0000001c memcpy
080019e0 g     F .text	00000020 .hidden __aeabi_cdrcmple
0800241c g     F .text.setvbuf	00000168 setvbuf
08004048 g     F .text._svfprintf_r	000001f0 _svfprintf_r
0800145c g     F .text	00000022 .hidden __floatsidf
0800195c g     F .text	00000082 .hidden __ltdf2
08000198  w    F .text	00000000 EXTI0_IRQHandler
08000198  w    F .text	00000000 I2C2_EV_IRQHandler
08000198  w    F .text	00000000 DMA1_Stream2_IRQHandler
08000198  w    F .text	00000000 FPU_IRQHandler
20000000 g     O .data	00000004 SystemCoreClock
08003d6c g     F .text.__ratio	00000062 __ratio
08002584 g     F .text._vsprintf_r	0000002c _vsiprintf_r
20000000 g       .data	00000000 __RW_BASE__
08003354 g     F .text.malloc	00000010 malloc
080023dc g     F .text._printf_r	0000001c _printf_r
08005242 g     F .text._raise_r	00000050 _raise_r
0800060c g     F .text	0000000a _fstat
08005064 g     F .text.__assert_func	0000003c __assert_func
080055a0 g     O .rodata	000000c8 __mprec_tens
08000198  w    F .text	00000000 UsageFault_Handler
08001ae0 g     F .text	00000040 .hidden __fixunsdfsi
08000198  w    F .text	00000000 DMA2_Stream2_IRQHandler
0800533c g     F .text._getpid_r	00000004 _getpid_r
0800143c g     F .text	0000001e .hidden __aeabi_ui2d
080025c8 g     F .text._localeconv_r	00000008 _localeconv_r
080048ac g     F .text.__sfvwrite_r	000002a0 __sfvwrite_r
08003740 g     F .text.__i2b	0000002c __i2b
08005292 g     F .text.__sigtramp_r	00000048 __sigtramp_r
08000374 g     F .text	00000058 I2C1_SC16IS752_Write_Reg
08000198  w    F .text	00000000 SPI1_IRQHandler
080011b8 g     F .text	00000000 .hidden __aeabi_drsub
08005004 g     F .text._sbrk_r	00000020 _sbrk_r
080004ac g     F .text	00000034 LED_Init
08004fe0 g     F .text._read_r	00000024 _read_r
08000198  w    F .text	00000000 TIM1_BRK_TIM9_IRQHandler
08000b88 g     F .text	00000010 TIM3_Out_Stop
08001a14 g     F .text	00000012 .hidden __aeabi_dcmplt
08000204 g     F .text	00000060 Clock_Init
0800462c g     F .text.fflush	00000028 fflush
08001480 g     F .text	00000042 .hidden __extendsfdf2
08001784 g     F .text	000001d0 .hidden __aeabi_ddiv
080011c4 g     F .text	00000276 .hidden __adddf3
200001cc g       .data	00000000 __RW_LIMIT__
08000e20 g     F .text	0000004c Uart1_Printf
08003c28 g     F .text.__b2d	00000092 __b2d
200001d3 g     O .bss	00000001 __lock___env_recursive_mutex
08000198  w    F .text	00000000 DMA2_Stream3_IRQHandler
08001530 g     F .text	00000254 .hidden __aeabi_dmul
08000618 g     F .text	00000004 _isatty
08005108 g     F .text._realloc_r	0000005c _realloc_r
080025b0 g     F .text.vsprintf	00000014 vsiprintf
08005578 g     O .rodata	00000028 __mprec_bigtens
08003614 g     F .text.__s2b	00000094 __s2b
080051cc g     F .text.abort	0000000e abort
0800143c g     F .text	0000001e .hidden __floatunsidf
080005a8 g     F .text	00000038 _sbrk
08003a74 g     F .text.__mcmp	00000036 __mcmp
08000e6c g     F .text	00000014 Uart1_Get_Pressed
08004874 g     F .text.__fp_lock_all	0000001c __fp_lock_all
08000198  w    F .text	00000000 USART6_IRQHandler
08000430 g     F .text	0000007c Key_ISR_Enable
08004ebc g     F .text._reclaim_reent	000000bc _reclaim_reent
080036a8 g     F .text.__hi0bits	0000003c __hi0bits
08001a90 g     F .text	0000004e .hidden __fixdfsi
08000a54 g     F .text	00000010 TIM4_Change_Value
0800071c g     F .text	0000004c SPI1_SC16IS752_Write_Reg
200001d4 g     O .bss	00000001 __lock___malloc_recursive_mutex
08000198  w    F .text	00000000 DMA2_Stream0_IRQHandler
200001e0 g     O .bss	00000138 __sf
08000918 g     F .text	00000020 TIM2_Stopwatch_Stop
080051a8 g     F .text.fprintf	00000024 fprintf
08000198  w    F .text	00000000 TIM4_IRQHandler
080011c4 g     F .text	00000276 .hidden __aeabi_dadd
0800195c g     F .text	00000082 .hidden __ledf2
080038d8 g     F .text.__pow5mult	000000b8 __pow5mult
080014c4 g     F .text	0000006a .hidden __aeabi_ul2d
08000198  w    F .text	00000000 I2C1_EV_IRQHandler
0800019c g     F .text	00000000 __start
080025fa g     F .text.__retarget_lock_release_recursive	00000002 __retarget_lock_release_recursive
08000198  w    F .text	00000000 DMA1_Stream6_IRQHandler
08003e94 g     F .text.__ssputs_r	000000c0 __ssputs_r
080025f4 g     F .text.__retarget_lock_try_acquire_recursive	00000004 __retarget_lock_try_acquire_recursive
08001a50 g     F .text	00000012 .hidden __aeabi_dcmpgt
08000198  w    F .text	00000000 DMA1_Stream1_IRQHandler
08004262 g     F .text.__sfputs_r	00000024 __sfputs_r
08004788 g     F .text.__sfp_lock_acquire	0000000c __sfp_lock_acquire
08000ea0 g     F .text	00000000 memchr
08001c54  w    F .text._printf_float	00000448 _printf_float
080032bc g     F .text._free_r	00000098 _free_r
08000198  w    F .text	00000000 TIM3_IRQHandler
08000198  w    F .text	00000000 RCC_IRQHandler
08004e80 g     F .text.__locale_mb_cur_max	0000000c __locale_mb_cur_max
08001a3c g     F .text	00000012 .hidden __aeabi_dcmpge
080011c0 g     F .text	0000027a .hidden __aeabi_dsub
08000a28 g     F .text	0000001c TIM4_Check_Timeout
000001cc g       *ABS*	00000000 __RW_SIZE__
08005350 g     O .rodata	00000010 AHBPrescTable
08000264 g     F .text	0000002c _Invalid_ISR
080025f0 g     F .text.__retarget_lock_try_acquire	00000004 __retarget_lock_try_acquire
080014c4 g     F .text	0000006a .hidden __floatundidf
08000600 g     F .text	00000004 _lseek
08003990 g     F .text.__lshift	000000e4 __lshift
080052ec g     F .text.signal	00000010 signal
08003f54 g     F .text.__ssprint_r	000000f4 __ssprint_r
08000198  w    F .text	00000000 EXTI15_10_IRQHandler
08000198  w    F .text	00000000 ADC_IRQHandler
08005770 g       *ABS*	00000000 __RW_LOAD_ADDR__
08000870 g     F .text	00000044 SysTick_Run
0800376c g     F .text.__multiply	0000016c __multiply
08003cbc g     F .text.__d2b	000000b0 __d2b
080023dc g     F .text._printf_r	0000001c _iprintf_r
08000198  w    F .text	00000000 DMA1_Stream7_IRQHandler
08000198  w    F .text	00000000 SPI5_IRQHandler
08000ca8 g     F .text	0000003c Uart2_RX_Interrupt_Enable
08000420 g     F .text	00000010 Key_Wait_Key_Released
08004e9c g     F .text._close_r	00000020 _close_r
0800145c g     F .text	00000022 .hidden __aeabi_i2d
08000198  w    F .text	00000000 TIM5_IRQHandler
08000000 g       .text	00000000 __RO_BASE__
08000198  w    F .text	00000000 DMA2_Stream7_IRQHandler
080025ea g     F .text.__retarget_lock_close_recursive	00000002 __retarget_lock_close_recursive
08000198  w    F .text	00000000 I2C3_EV_IRQHandler
08004d58 g     F .text.__swsetup_r	000000a8 __swsetup_r
08000198  w    F .text	00000000 EXTI9_5_IRQHandler
08001784 g     F .text	000001d0 .hidden __divdf3
080047a0 g     F .text.__sfp	000000a4 __sfp
08003e0c g     F .text.__copybits	00000046 __copybits
08000198  w    F .text	00000000 RTC_WKUP_IRQHandler
08001530 g     F .text	00000254 .hidden __muldf3
08004c40 g     F .text.__sread	00000022 __sread
0800518e g     F .text._fprintf_r	0000001a _fprintf_r
080034b0 g     F .text.__malloc_lock	0000000c __malloc_lock
080045dc g     F .text._fflush_r	00000050 _fflush_r
080050aa g     F .text._calloc_r	00000028 _calloc_r
08000938 g     F .text	000000ac TIM2_Delay
08000198  w    F .text	00000000 SPI2_IRQHandler
080025ee g     F .text.__retarget_lock_acquire_recursive	00000002 __retarget_lock_acquire_recursive
08004e32 g     F .text.memset	00000010 memset
08000198  w    F .text	00000000 MemManage_Handler
08000198  w    F .text	00000000 DMA1_Stream0_IRQHandler
080025e6 g     F .text.__retarget_lock_init_recursive	00000002 __retarget_lock_init_recursive
08004d48 g     F .text.__swbuf	00000010 __swbuf
20000324 g       .bss	00000000 __ZI_LIMIT__
08000198  w    F .text	00000000 SVC_Handler
08004cc4 g     F .text.__sclose	00000008 __sclose
08002710 g     F .text._dtoa_r	00000bac _dtoa_r
080033b8 g     F .text._malloc_r	000000f8 _malloc_r
08005174 g     F .text.__ascii_wctomb	0000001a __ascii_wctomb
080014d4 g     F .text	0000005a .hidden __aeabi_l2d
08000df0 g     F .text	00000030 Uart1_Send_String
08000dcc g     F .text	00000024 Uart1_Send_Byte
0800518e g     F .text._fprintf_r	0000001a _fiprintf_r
080052fc g     F .text._init_signal	0000000c _init_signal
080003fc g     F .text	00000014 Key_Get_Pressed
08000c84 g     F .text	00000024 Uart2_Send_Byte
08000aec g     F .text	00000050 TIM3_Out_Init
080050d4 g     F .text._mbtowc_r	00000010 _mbtowc_r
08000198  w    F .text	00000000 EXTI4_IRQHandler
08000f50 g     F .text	00000014 strcmp
08005770 g       .rodata	00000000 __RO_LIMIT__
080044c8 g     F .text.vfprintf	00000014 vfiprintf
080007e8 g     F .text	00000014 SystemInit
080025e4 g     F .text.__retarget_lock_init	00000002 __retarget_lock_init
08001964 g     F .text	0000007a .hidden __nedf2
080023f8 g     F .text.printf	00000024 iprintf
080003cc g     F .text	00000008 I2C1_SC16IS752_Config_GPIO
08001bde g     F .text.__exponent	00000076 __exponent
2000031c g     O .bss	00000004 _PathLocale
08005024 g     F .text._write_r	00000024 _write_r
08002584 g     F .text._vsprintf_r	0000002c _vsprintf_r
08004e8c g     F .text.setlocale	00000010 setlocale
08000b98 g     F .text	000000ec Uart2_Init
0800209c g     F .text._printf_common	000000ea _printf_common
20000004 g     O .data	00000004 _impure_ptr
080044dc g     F .text.__sflush_r	00000100 __sflush_r
08004b4c g     F .text._fwalk_sglue	0000003a _fwalk_sglue
08004048 g     F .text._svfprintf_r	000001f0 _svfiprintf_r
00000158 g       *ABS*	00000000 __ZI_SIZE__
08000198  w    F .text	00000000 WWDG_IRQHandler
080050e4 g     F .text.__ascii_mbtowc	00000024 __ascii_mbtowc
08003bdc g     F .text.__ulp	0000004c __ulp
08004890 g     F .text.__fp_unlock_all	0000001c __fp_unlock_all
080008d0 g     F .text	0000000a SysTick_Stop
08000198  w    F .text	00000000 TIM2_IRQHandler
08000630 g     F .text	000000ec SPI1_SC16IS752_Init
080004f0 g     F .text	00000010 LED_Off
08001ae0 g     F .text	00000040 .hidden __aeabi_d2uiz
08000198  w    F .text	00000000 OTG_FS_WKUP_IRQHandler
08000198  w    F .text	00000000 TIM1_TRG_COM_TIM11_IRQHandler
200001cc g       .bss	00000000 __ZI_BASE__
080025d0 g     F .text.localeconv	00000008 localeconv
08004b86 g     F .text.__swhatbuf_r	00000048 __swhatbuf_r
08000198  w    F .text	00000000 EXTI1_IRQHandler
08001a00 g     F .text	00000012 .hidden __aeabi_dcmpeq
20000054 g     O .data	0000000c __sglue
08000a44 g     F .text	00000010 TIM4_Stop
080005e0 g     F .text	0000001a _write
08000410 g     F .text	00000010 Key_Wait_Key_Pressed
08000ce4 g     F .text	000000e8 Uart1_Init
200001d5 g     O .bss	00000001 __lock___at_quick_exit_mutex
08000198  w    F .text	00000000 USART2_IRQHandler
08004c66 g     F .text.__swrite	00000038 __swrite
080051a8 g     F .text.fprintf	00000024 fiprintf
080042a0 g     F .text._vfprintf_r	00000228 _vfiprintf_r
080007fc g     F .text	00000070 SystemCoreClockUpdate
08003aac g     F .text.__mdiff	00000130 __mdiff
08001a90 g     F .text	0000004e .hidden __aeabi_d2iz
08000620 g     F .text	00000010 _kill
20000008 g     O .data	0000004c _impure_data
08000198  w    F .text	00000000 I2C2_ER_IRQHandler
08004794 g     F .text.__sfp_lock_release	0000000c __sfp_lock_release
08000198  w    F .text	00000000 DMA2_Stream1_IRQHandler
08005668 g     O .rodata	00000101 _ctype_
080005fc g     F .text	00000004 _read
08000768 g     F .text	00000040 SPI1_SC16IS752_Config_GPIO
080025ec g     F .text.__retarget_lock_acquire	00000002 __retarget_lock_acquire
08001a64 g     F .text	0000002c .hidden __unorddf2
080025f8 g     F .text.__retarget_lock_release	00000002 __retarget_lock_release
08000198  w    F .text	00000000 FLASH_IRQHandler
08005340 g     F .text._exit	00000002 _exit
080003d4 g     F .text	00000008 I2C1_SC16IS752_Write_GPIO
08000198  w    F .text	00000000 DMA2_Stream4_IRQHandler
08000198  w    F .text	00000000 BusFault_Handler
08000198  w    F .text	00000000 USART1_IRQHandler
200001d1 g     O .bss	00000001 __lock___dd_hash_mutex
08004bce g     F .text.__smakebuf_r	00000072 __smakebuf_r
200001d2 g     O .bss	00000001 __lock___tz_mutex
080008c0 g     F .text	00000008 SysTick_Get_Time
08000f40 g     F .text	00000010 strlen
08000198  w    F .text	00000000 OTG_FS_IRQHandler
08002188 g     F .text._printf_i	00000254 _printf_i
08000198  w    F .text	00000000 SPI3_IRQHandler
08000a64 g     F .text	00000088 TIM4_Repeat_Interrupt_Enable
080051ea g     F .text._init_signal_r	00000028 _init_signal_r
080019f0 g     F .text	00000010 .hidden __aeabi_cdcmpeq
08001954 g     F .text	0000008a .hidden __gedf2
08000198  w    F .text	00000000 DMA1_Stream4_IRQHandler
200001d8 g     O .bss	00000004 __malloc_sbrk_start
08000e80 g     F .text	00000014 Uart1_Get_Char
080009e4 g     F .text	00000044 TIM4_Repeat
080050a0 g     F .text.__assert	0000000a __assert
080004e0 g     F .text	00000010 LED_On
08000198  w    F .text	00000000 I2C1_ER_IRQHandler
08000b3c g     F .text	0000004c TIM3_Out_Freq_Generation
08004286 g     F .text.__sprint_r	0000001a __sprint_r
08001480 g     F .text	00000042 .hidden __aeabi_f2d
080007a8 g     F .text	00000040 SPI1_SC16IS752_Write_GPIO
200001dc g     O .bss	00000004 __malloc_free_list
08005164 g     F .text._wctomb_r	00000010 _wctomb_r
080011c0 g     F .text	0000027a .hidden __subdf3
080042a0 g     F .text._vfprintf_r	00000228 _vfprintf_r
080036e4 g     F .text.__lo0bits	0000005c __lo0bits
08005308 g     F .text.__sigtramp	00000010 __sigtramp
08000198  w    F .text	00000000 DMA2_Stream6_IRQHandler
08000198  w    F .text	00000000 Invalid_ISR
20000060 g     O .data	0000016c __global_locale
080008b4 g     F .text	0000000c SysTick_Check_Timeout
080044c8 g     F .text.vfprintf	00000014 vfprintf
08000198  w    F .text	00000000 DMA1_Stream3_IRQHandler
200001d7 g     O .bss	00000001 __lock___sfp_recursive_mutex
080052dc g     F .text.raise	00000010 raise
08000604 g     F .text	00000006 _close
08003364 g     F .text.free	00000010 free
08003588 g     F .text.__multadd	0000008c __multadd
08003544 g     F .text._Bfree	00000044 _Bfree



Disassembly of section .text:

08000000 <__RO_BASE__>:
 8000000:	20020000 			@ <UNDEFINED> instruction: 20020000
 8000004:	0800019d 			@ <UNDEFINED> instruction: 0800019d
 8000008:	08000199 			@ <UNDEFINED> instruction: 08000199
 800000c:	08000199 			@ <UNDEFINED> instruction: 08000199
 8000010:	08000199 			@ <UNDEFINED> instruction: 08000199
 8000014:	08000199 			@ <UNDEFINED> instruction: 08000199
 8000018:	08000199 			@ <UNDEFINED> instruction: 08000199
 800001c:	08000199 			@ <UNDEFINED> instruction: 08000199
 8000020:	08000199 			@ <UNDEFINED> instruction: 08000199
 8000024:	08000199 			@ <UNDEFINED> instruction: 08000199
 8000028:	08000199 			@ <UNDEFINED> instruction: 08000199
 800002c:	08000199 			@ <UNDEFINED> instruction: 08000199
 8000030:	08000199 			@ <UNDEFINED> instruction: 08000199
 8000034:	08000199 			@ <UNDEFINED> instruction: 08000199
 8000038:	08000199 			@ <UNDEFINED> instruction: 08000199
 800003c:	08000199 			@ <UNDEFINED> instruction: 08000199
 8000040:	08000199 			@ <UNDEFINED> instruction: 08000199
 8000044:	08000199 			@ <UNDEFINED> instruction: 08000199
 8000048:	08000199 			@ <UNDEFINED> instruction: 08000199
 800004c:	08000199 			@ <UNDEFINED> instruction: 08000199
 8000050:	08000199 			@ <UNDEFINED> instruction: 08000199
 8000054:	08000199 			@ <UNDEFINED> instruction: 08000199
 8000058:	08000199 			@ <UNDEFINED> instruction: 08000199
 800005c:	08000199 			@ <UNDEFINED> instruction: 08000199
 8000060:	08000199 			@ <UNDEFINED> instruction: 08000199
 8000064:	08000199 			@ <UNDEFINED> instruction: 08000199
 8000068:	08000199 			@ <UNDEFINED> instruction: 08000199
 800006c:	08000199 			@ <UNDEFINED> instruction: 08000199
 8000070:	08000199 			@ <UNDEFINED> instruction: 08000199
 8000074:	08000199 			@ <UNDEFINED> instruction: 08000199
 8000078:	08000199 			@ <UNDEFINED> instruction: 08000199
 800007c:	08000199 			@ <UNDEFINED> instruction: 08000199
 8000080:	08000199 			@ <UNDEFINED> instruction: 08000199
 8000084:	08000199 			@ <UNDEFINED> instruction: 08000199
 8000088:	08000199 			@ <UNDEFINED> instruction: 08000199
 800008c:	08000199 			@ <UNDEFINED> instruction: 08000199
 8000090:	08000199 			@ <UNDEFINED> instruction: 08000199
 8000094:	08000199 			@ <UNDEFINED> instruction: 08000199
 8000098:	08000199 			@ <UNDEFINED> instruction: 08000199
 800009c:	08000199 			@ <UNDEFINED> instruction: 08000199
 80000a0:	08000199 			@ <UNDEFINED> instruction: 08000199
 80000a4:	08000199 			@ <UNDEFINED> instruction: 08000199
 80000a8:	08000199 			@ <UNDEFINED> instruction: 08000199
 80000ac:	08000199 			@ <UNDEFINED> instruction: 08000199
 80000b0:	08000199 			@ <UNDEFINED> instruction: 08000199
 80000b4:	08000199 			@ <UNDEFINED> instruction: 08000199
 80000b8:	08000199 			@ <UNDEFINED> instruction: 08000199
 80000bc:	08000199 			@ <UNDEFINED> instruction: 08000199
 80000c0:	08000199 			@ <UNDEFINED> instruction: 08000199
 80000c4:	08000199 			@ <UNDEFINED> instruction: 08000199
 80000c8:	08000199 			@ <UNDEFINED> instruction: 08000199
 80000cc:	08000199 			@ <UNDEFINED> instruction: 08000199
 80000d0:	08000199 			@ <UNDEFINED> instruction: 08000199
 80000d4:	08000199 			@ <UNDEFINED> instruction: 08000199
 80000d8:	08000199 			@ <UNDEFINED> instruction: 08000199
 80000dc:	08000199 			@ <UNDEFINED> instruction: 08000199
 80000e0:	08000199 			@ <UNDEFINED> instruction: 08000199
 80000e4:	08000199 			@ <UNDEFINED> instruction: 08000199
 80000e8:	08000199 			@ <UNDEFINED> instruction: 08000199
 80000ec:	08000199 			@ <UNDEFINED> instruction: 08000199
 80000f0:	08000199 			@ <UNDEFINED> instruction: 08000199
 80000f4:	08000199 			@ <UNDEFINED> instruction: 08000199
 80000f8:	08000199 			@ <UNDEFINED> instruction: 08000199
 80000fc:	08000199 			@ <UNDEFINED> instruction: 08000199
 8000100:	08000199 			@ <UNDEFINED> instruction: 08000199
 8000104:	08000199 			@ <UNDEFINED> instruction: 08000199
 8000108:	08000199 			@ <UNDEFINED> instruction: 08000199
 800010c:	08000199 			@ <UNDEFINED> instruction: 08000199
 8000110:	08000199 			@ <UNDEFINED> instruction: 08000199
 8000114:	08000199 			@ <UNDEFINED> instruction: 08000199
 8000118:	08000199 			@ <UNDEFINED> instruction: 08000199
 800011c:	08000199 			@ <UNDEFINED> instruction: 08000199
 8000120:	08000199 			@ <UNDEFINED> instruction: 08000199
 8000124:	08000199 			@ <UNDEFINED> instruction: 08000199
 8000128:	08000199 			@ <UNDEFINED> instruction: 08000199
 800012c:	08000199 			@ <UNDEFINED> instruction: 08000199
 8000130:	08000199 			@ <UNDEFINED> instruction: 08000199
 8000134:	08000199 			@ <UNDEFINED> instruction: 08000199
 8000138:	08000199 			@ <UNDEFINED> instruction: 08000199
 800013c:	08000199 			@ <UNDEFINED> instruction: 08000199
 8000140:	08000199 			@ <UNDEFINED> instruction: 08000199
 8000144:	08000199 			@ <UNDEFINED> instruction: 08000199
 8000148:	08000199 			@ <UNDEFINED> instruction: 08000199
 800014c:	08000199 			@ <UNDEFINED> instruction: 08000199
 8000150:	08000199 			@ <UNDEFINED> instruction: 08000199
 8000154:	08000199 			@ <UNDEFINED> instruction: 08000199
 8000158:	08000199 			@ <UNDEFINED> instruction: 08000199
 800015c:	08000199 			@ <UNDEFINED> instruction: 08000199
 8000160:	08000199 			@ <UNDEFINED> instruction: 08000199
 8000164:	08000199 			@ <UNDEFINED> instruction: 08000199
 8000168:	08000199 			@ <UNDEFINED> instruction: 08000199
 800016c:	08000199 			@ <UNDEFINED> instruction: 08000199
 8000170:	08000199 			@ <UNDEFINED> instruction: 08000199
 8000174:	08000199 			@ <UNDEFINED> instruction: 08000199
 8000178:	08000199 			@ <UNDEFINED> instruction: 08000199
 800017c:	08000199 			@ <UNDEFINED> instruction: 08000199
 8000180:	08000199 			@ <UNDEFINED> instruction: 08000199
 8000184:	08000199 			@ <UNDEFINED> instruction: 08000199
 8000188:	08000199 			@ <UNDEFINED> instruction: 08000199
 800018c:	08000199 			@ <UNDEFINED> instruction: 08000199
 8000190:	08000199 			@ <UNDEFINED> instruction: 08000199
 8000194:	08000199 			@ <UNDEFINED> instruction: 08000199

08000198 <ADC_IRQHandler>:
	.word   SPI5_IRQHandler                   @ SPI5

    .weak   Invalid_ISR
  	.type 	Invalid_ISR, %function
Invalid_ISR:	
	B		_Invalid_ISR
 8000198:	f000 b864 	b.w	8000264 <_Invalid_ISR>

0800019c <__start>:

	.equ GPIOA_LCKR,	0x4002001C @ Lock PA[14:13] for ST-LINK
	.equ RCC_AHB1ENR,  	0x40023830 @ PA : [0] = 1, PC : [2] = 1

	@ GPIOA, GPIOC clock on
	LDR   	r0, =RCC_AHB1ENR
 800019c:	4813      	ldr	r0, [pc, #76]	@ (80001ec <__start+0x50>)
	LDR   	r1, [r0]
 800019e:	6801      	ldr	r1, [r0, #0]
	ORR	  	r1, r1, #(0x1<<2)|(0x1<<0)
 80001a0:	f041 0105 	orr.w	r1, r1, #5
	STR   	r1, [r0]
 80001a4:	6001      	str	r1, [r0, #0]

	@ Lock PA[14:13] pin configuration for ST-LINK
	LDR		r0, =GPIOA_LCKR
 80001a6:	4812      	ldr	r0, [pc, #72]	@ (80001f0 <__start+0x54>)
	LDR		r1, =(0x1<<16)|(0x3<<13)
 80001a8:	f44f 31b0 	mov.w	r1, #90112	@ 0x16000
	STR		r1, [r0]
 80001ac:	6001      	str	r1, [r0, #0]
	LDR		r1, =(0x0<<16)|(0x3<<13)
 80001ae:	f44f 41c0 	mov.w	r1, #24576	@ 0x6000
	STR		r1, [r0]
 80001b2:	6001      	str	r1, [r0, #0]
	LDR		r1, =(0x1<<16)|(0x3<<13)
 80001b4:	f44f 31b0 	mov.w	r1, #90112	@ 0x16000
	STR		r1, [r0]
 80001b8:	6001      	str	r1, [r0, #0]
	LDR		r1, [r0]
 80001ba:	6801      	ldr	r1, [r0, #0]
	.extern __RO_LIMIT__
	.extern __RW_BASE__
	.extern __ZI_BASE__
	.extern __ZI_LIMIT__

	LDR		r0, =__RO_LIMIT__
 80001bc:	480d      	ldr	r0, [pc, #52]	@ (80001f4 <__start+0x58>)
	LDR		r1, =__RW_BASE__
 80001be:	490e      	ldr	r1, [pc, #56]	@ (80001f8 <__start+0x5c>)
	LDR		r3, =__ZI_BASE__
 80001c0:	4b0e      	ldr	r3, [pc, #56]	@ (80001fc <__start+0x60>)

	CMP		r0, r1
 80001c2:	4288      	cmp	r0, r1
	BEQ		2f
 80001c4:	d006      	beq.n	80001d4 <__start+0x38>

1:
	CMP		r1, r3
 80001c6:	4299      	cmp	r1, r3
	ITT		LO
 80001c8:	bf3c      	itt	cc
	LDRLO	r2, [r0], #4
 80001ca:	f850 2b04 	ldrcc.w	r2, [r0], #4
	STRLO	r2, [r1], #4
 80001ce:	f841 2b04 	strcc.w	r2, [r1], #4
	BLO		1b
 80001d2:	d3f8      	bcc.n	80001c6 <__start+0x2a>

2:
	LDR		r1, =__ZI_LIMIT__
 80001d4:	490a      	ldr	r1, [pc, #40]	@ (8000200 <__start+0x64>)
	MOV		r2, #0x0
 80001d6:	f04f 0200 	mov.w	r2, #0
3:
	CMP		r3, r1
 80001da:	428b      	cmp	r3, r1
	ITT		lo
 80001dc:	bf3c      	itt	cc
	STRLO	r2, [r3], #4
 80001de:	f843 2b04 	strcc.w	r2, [r3], #4
	BLO		3b
 80001e2:	e7fa      	bcc.n	80001da <__start+0x3e>

	.extern Main

	BL		Main
 80001e4:	f000 f98c 	bl	8000500 <Main>

	B		.
 80001e8:	e7fe      	b.n	80001e8 <__start+0x4c>
 80001ea:	38300000 			@ <UNDEFINED> instruction: 38300000
	LDR   	r0, =RCC_AHB1ENR
 80001ee:	001c4002 			@ <UNDEFINED> instruction: 001c4002
	LDR		r0, =GPIOA_LCKR
 80001f2:	57704002 			@ <UNDEFINED> instruction: 57704002
	LDR		r0, =__RO_LIMIT__
 80001f6:	00000800 			@ <UNDEFINED> instruction: 00000800
	LDR		r1, =__RW_BASE__
 80001fa:	01cc2000 			@ <UNDEFINED> instruction: 01cc2000
	LDR		r3, =__ZI_BASE__
 80001fe:	03242000 			@ <UNDEFINED> instruction: 03242000
	LDR		r1, =__ZI_LIMIT__
 8000202:	 			@ <UNDEFINED> instruction: 4a142000

08000204 <Clock_Init>:
#include "device_driver.h"

void Clock_Init(void)
{
    RCC->CR |= (1 << 0); 
 8000204:	4a14      	ldr	r2, [pc, #80]	@ (8000258 <Clock_Init+0x54>)
 8000206:	6813      	ldr	r3, [r2, #0]
 8000208:	f043 0301 	orr.w	r3, r3, #1
 800020c:	6013      	str	r3, [r2, #0]
    while(!Macro_Check_Bit_Set(RCC->CR, 1));
 800020e:	6813      	ldr	r3, [r2, #0]
 8000210:	0799      	lsls	r1, r3, #30
 8000212:	d5fc      	bpl.n	800020e <Clock_Init+0xa>

    FLASH->ACR = (1<<12)|(1<<11);
 8000214:	4b11      	ldr	r3, [pc, #68]	@ (800025c <Clock_Init+0x58>)
    FLASH->ACR = (1<<10)|(1<<9)|(1<<8)|(0x3 << 0);

    RCC->PLLCFGR = (8<<24)|(0<<22)|(1<<16)|(192<<6)|(8<<0);
 8000216:	4912      	ldr	r1, [pc, #72]	@ (8000260 <Clock_Init+0x5c>)
    FLASH->ACR = (1<<12)|(1<<11);
 8000218:	f44f 5cc0 	mov.w	ip, #6144	@ 0x1800
    FLASH->ACR = (1<<10)|(1<<9)|(1<<8)|(0x3 << 0);
 800021c:	f240 7003 	movw	r0, #1795	@ 0x703
    FLASH->ACR = (1<<12)|(1<<11);
 8000220:	f8c3 c000 	str.w	ip, [r3]
    FLASH->ACR = (1<<10)|(1<<9)|(1<<8)|(0x3 << 0);
 8000224:	6018      	str	r0, [r3, #0]
    RCC->PLLCFGR = (8<<24)|(0<<22)|(1<<16)|(192<<6)|(8<<0);
 8000226:	6051      	str	r1, [r2, #4]

    Macro_Set_Bit(RCC->CR, 24);
 8000228:	6813      	ldr	r3, [r2, #0]
    while(!Macro_Check_Bit_Set(RCC->CR, 25));
 800022a:	490b      	ldr	r1, [pc, #44]	@ (8000258 <Clock_Init+0x54>)
    Macro_Set_Bit(RCC->CR, 24);
 800022c:	f043 7380 	orr.w	r3, r3, #16777216	@ 0x1000000
 8000230:	6013      	str	r3, [r2, #0]
    while(!Macro_Check_Bit_Set(RCC->CR, 25));
 8000232:	680b      	ldr	r3, [r1, #0]
 8000234:	019b      	lsls	r3, r3, #6
 8000236:	d5fc      	bpl.n	8000232 <Clock_Init+0x2e>

    RCC->CFGR = (0<<13)|(4<<10)|(0<<4);
 8000238:	f44f 5380 	mov.w	r3, #4096	@ 0x1000
 800023c:	608b      	str	r3, [r1, #8]

    Macro_Write_Block(RCC->CFGR, 0x3, 0x2, 0);
 800023e:	688b      	ldr	r3, [r1, #8]
    while(Macro_Extract_Area(RCC->CFGR, 0x3, 2) != 0x2);
 8000240:	4a05      	ldr	r2, [pc, #20]	@ (8000258 <Clock_Init+0x54>)
    Macro_Write_Block(RCC->CFGR, 0x3, 0x2, 0);
 8000242:	f023 0303 	bic.w	r3, r3, #3
 8000246:	f043 0302 	orr.w	r3, r3, #2
 800024a:	608b      	str	r3, [r1, #8]
    while(Macro_Extract_Area(RCC->CFGR, 0x3, 2) != 0x2);
 800024c:	6893      	ldr	r3, [r2, #8]
 800024e:	f003 030c 	and.w	r3, r3, #12
 8000252:	2b08      	cmp	r3, #8
 8000254:	d1fa      	bne.n	800024c <Clock_Init+0x48>
}
 8000256:	4770      	bx	lr
 8000258:	40023800 			@ <UNDEFINED> instruction: 40023800
 800025c:	40023c00 			@ <UNDEFINED> instruction: 40023c00
 8000260:	08013008 			@ <UNDEFINED> instruction: 08013008

08000264 <_Invalid_ISR>:
#include "device_driver.h"
#include <stdio.h>

void _Invalid_ISR(void)
{
 8000264:	b510      	push	{r4, lr}
	unsigned int r = Macro_Extract_Area(SCB->ICSR, 0x1ff, 0);
 8000266:	4b07      	ldr	r3, [pc, #28]	@ (8000284 <_Invalid_ISR+0x20>)
	printf("\nInvalid_Exception: %d!\n", r);
 8000268:	4807      	ldr	r0, [pc, #28]	@ (8000288 <_Invalid_ISR+0x24>)
	unsigned int r = Macro_Extract_Area(SCB->ICSR, 0x1ff, 0);
 800026a:	685c      	ldr	r4, [r3, #4]
 800026c:	f3c4 0408 	ubfx	r4, r4, #0, #9
	printf("\nInvalid_Exception: %d!\n", r);
 8000270:	4621      	mov	r1, r4
 8000272:	f002 f8c1 	bl	80023f8 <iprintf>
	printf("Invalid_ISR: %d!\n", r - 16);
 8000276:	4805      	ldr	r0, [pc, #20]	@ (800028c <_Invalid_ISR+0x28>)
 8000278:	f1a4 0110 	sub.w	r1, r4, #16
 800027c:	f002 f8bc 	bl	80023f8 <iprintf>
	for(;;);
 8000280:	e7fe      	b.n	8000280 <_Invalid_ISR+0x1c>
 8000282:	bf00      	nop
 8000284:	e000ed00 			@ <UNDEFINED> instruction: e000ed00
 8000288:	08005368 			@ <UNDEFINED> instruction: 08005368
 800028c:	08005384 			@ <UNDEFINED> instruction: 08005384

08000290 <I2C1_SC16IS752_Init>:
void I2C1_SC16IS752_Init(unsigned int freq)
{
	unsigned int r;
	volatile int i;
	
	Macro_Set_Bit(RCC->AHB1ENR, 1); 					// Port-B Clock On
 8000290:	4b34      	ldr	r3, [pc, #208]	@ (8000364 <I2C1_SC16IS752_Init+0xd4>)
 8000292:	6b1a      	ldr	r2, [r3, #48]	@ 0x30
 8000294:	f042 0202 	orr.w	r2, r2, #2
{
 8000298:	b082      	sub	sp, #8
	Macro_Set_Bit(RCC->AHB1ENR, 1); 					// Port-B Clock On
 800029a:	631a      	str	r2, [r3, #48]	@ 0x30
	Macro_Set_Bit(RCC->APB1ENR, 21); 					// I2C1 Clock On
 800029c:	6c1a      	ldr	r2, [r3, #64]	@ 0x40
 800029e:	f442 1200 	orr.w	r2, r2, #2097152	@ 0x200000
 80002a2:	641a      	str	r2, [r3, #64]	@ 0x40

	Macro_Clear_Bit(RCC->APB1RSTR, 21); 				// I2C1 Reset
 80002a4:	6a1a      	ldr	r2, [r3, #32]
 80002a6:	f422 1200 	bic.w	r2, r2, #2097152	@ 0x200000
 80002aa:	621a      	str	r2, [r3, #32]
	Macro_Set_Bit(RCC->APB1RSTR, 21);
 80002ac:	6a1a      	ldr	r2, [r3, #32]
	for(i = 0; i < 1000; i++);
 80002ae:	2100      	movs	r1, #0
	Macro_Set_Bit(RCC->APB1RSTR, 21);
 80002b0:	f442 1200 	orr.w	r2, r2, #2097152	@ 0x200000
 80002b4:	621a      	str	r2, [r3, #32]
	for(i = 0; i < 1000; i++);
 80002b6:	9101      	str	r1, [sp, #4]
 80002b8:	9b01      	ldr	r3, [sp, #4]
 80002ba:	f5b3 7f7a 	cmp.w	r3, #1000	@ 0x3e8
 80002be:	da06      	bge.n	80002ce <I2C1_SC16IS752_Init+0x3e>
 80002c0:	9b01      	ldr	r3, [sp, #4]
 80002c2:	3301      	adds	r3, #1
 80002c4:	9301      	str	r3, [sp, #4]
 80002c6:	9b01      	ldr	r3, [sp, #4]
 80002c8:	f5b3 7f7a 	cmp.w	r3, #1000	@ 0x3e8
 80002cc:	dbf8      	blt.n	80002c0 <I2C1_SC16IS752_Init+0x30>
	Macro_Clear_Bit(RCC->APB1RSTR, 21);
 80002ce:	f8df c094 	ldr.w	ip, [pc, #148]	@ 8000364 <I2C1_SC16IS752_Init+0xd4>

	Macro_Write_Block(GPIOB->MODER, 0xf, 0xa, 12);  	// PB[7:6] => ALT
 80002d2:	4a25      	ldr	r2, [pc, #148]	@ (8000368 <I2C1_SC16IS752_Init+0xd8>)
	Macro_Clear_Bit(RCC->APB1RSTR, 21);
 80002d4:	f8dc 1020 	ldr.w	r1, [ip, #32]
	Macro_Write_Block(GPIOB->AFR[0], 0xff, 0x44, 24); 	// PB[7:6] => AF04
	Macro_Write_Block(GPIOB->OTYPER, 0x3, 0x3, 6); 		// PB[7:6] => Open Drain
	Macro_Write_Block(GPIOB->OSPEEDR, 0xf, 0xa, 12); 	// PB[7:6] => Fast Speed
	Macro_Write_Block(GPIOB->PUPDR, 0xf, 0x5, 12); 		// PB[7:6] => Internal Pull-up

	Macro_Write_Block(I2C1->CR2, 0x3f, PCLK1 / 1000000, 0);
 80002d8:	4b24      	ldr	r3, [pc, #144]	@ (800036c <I2C1_SC16IS752_Init+0xdc>)
	Macro_Clear_Bit(RCC->APB1RSTR, 21);
 80002da:	f421 1100 	bic.w	r1, r1, #2097152	@ 0x200000
 80002de:	f8cc 1020 	str.w	r1, [ip, #32]
	Macro_Write_Block(GPIOB->MODER, 0xf, 0xa, 12);  	// PB[7:6] => ALT
 80002e2:	6811      	ldr	r1, [r2, #0]
 80002e4:	f421 4170 	bic.w	r1, r1, #61440	@ 0xf000
 80002e8:	f441 4120 	orr.w	r1, r1, #40960	@ 0xa000
 80002ec:	6011      	str	r1, [r2, #0]
	Macro_Write_Block(GPIOB->AFR[0], 0xff, 0x44, 24); 	// PB[7:6] => AF04
 80002ee:	6a11      	ldr	r1, [r2, #32]
 80002f0:	f021 417f 	bic.w	r1, r1, #4278190080	@ 0xff000000
 80002f4:	f041 4188 	orr.w	r1, r1, #1140850688	@ 0x44000000
 80002f8:	6211      	str	r1, [r2, #32]
	Macro_Write_Block(GPIOB->OTYPER, 0x3, 0x3, 6); 		// PB[7:6] => Open Drain
 80002fa:	6851      	ldr	r1, [r2, #4]
 80002fc:	f041 01c0 	orr.w	r1, r1, #192	@ 0xc0
 8000300:	6051      	str	r1, [r2, #4]
	Macro_Write_Block(GPIOB->OSPEEDR, 0xf, 0xa, 12); 	// PB[7:6] => Fast Speed
 8000302:	6891      	ldr	r1, [r2, #8]
 8000304:	f421 4170 	bic.w	r1, r1, #61440	@ 0xf000
 8000308:	f441 4120 	orr.w	r1, r1, #40960	@ 0xa000
 800030c:	6091      	str	r1, [r2, #8]
	Macro_Write_Block(GPIOB->PUPDR, 0xf, 0x5, 12); 		// PB[7:6] => Internal Pull-up
 800030e:	68d1      	ldr	r1, [r2, #12]
 8000310:	f421 4170 	bic.w	r1, r1, #61440	@ 0xf000
 8000314:	f441 41a0 	orr.w	r1, r1, #20480	@ 0x5000
 8000318:	60d1      	str	r1, [r2, #12]
	Macro_Write_Block(I2C1->CR2, 0x3f, PCLK1 / 1000000, 0);
 800031a:	685a      	ldr	r2, [r3, #4]
 800031c:	f022 023f 	bic.w	r2, r2, #63	@ 0x3f
 8000320:	f042 0230 	orr.w	r2, r2, #48	@ 0x30
 8000324:	605a      	str	r2, [r3, #4]
	Macro_Clear_Bit(I2C1->CR1, 0);
 8000326:	681a      	ldr	r2, [r3, #0]
	I2C1->TRISE = (PCLK1 / 1000000) + 1;
	r = PCLK1 / (freq * 2);
 8000328:	ea4f 0c40 	mov.w	ip, r0, lsl #1
 800032c:	4810      	ldr	r0, [pc, #64]	@ (8000370 <I2C1_SC16IS752_Init+0xe0>)
 800032e:	fbb0 f0fc 	udiv	r0, r0, ip
	I2C1->CCR = ((r < 4) ? 4 : r);
 8000332:	2804      	cmp	r0, #4
	I2C1->TRISE = (PCLK1 / 1000000) + 1;
 8000334:	f04f 0131 	mov.w	r1, #49	@ 0x31
	Macro_Clear_Bit(I2C1->CR1, 0);
 8000338:	f022 0201 	bic.w	r2, r2, #1
	I2C1->CCR = ((r < 4) ? 4 : r);
 800033c:	bf38      	it	cc
 800033e:	2004      	movcc	r0, #4
	Macro_Clear_Bit(I2C1->CR1, 0);
 8000340:	601a      	str	r2, [r3, #0]
	I2C1->TRISE = (PCLK1 / 1000000) + 1;
 8000342:	6219      	str	r1, [r3, #32]
	I2C1->CCR = ((r < 4) ? 4 : r);
 8000344:	61d8      	str	r0, [r3, #28]

	Macro_Clear_Bit(I2C1->CR1, 1);
 8000346:	681a      	ldr	r2, [r3, #0]
 8000348:	f022 0202 	bic.w	r2, r2, #2
 800034c:	601a      	str	r2, [r3, #0]
	Macro_Set_Bit(I2C1->CR1, 0);
 800034e:	681a      	ldr	r2, [r3, #0]
 8000350:	f042 0201 	orr.w	r2, r2, #1
 8000354:	601a      	str	r2, [r3, #0]
	Macro_Set_Bit(I2C1->CR1, 10);
 8000356:	681a      	ldr	r2, [r3, #0]
 8000358:	f442 6280 	orr.w	r2, r2, #1024	@ 0x400
 800035c:	601a      	str	r2, [r3, #0]
}
 800035e:	b002      	add	sp, #8
 8000360:	4770      	bx	lr
 8000362:	bf00      	nop
 8000364:	40023800 			@ <UNDEFINED> instruction: 40023800
 8000368:	40020400 			@ <UNDEFINED> instruction: 40020400
 800036c:	40005400 			@ <UNDEFINED> instruction: 40005400
 8000370:	02dc6c00 			@ <UNDEFINED> instruction: 02dc6c00

08000374 <I2C1_SC16IS752_Write_Reg>:

void I2C1_SC16IS752_Write_Reg(unsigned int addr, unsigned int data)
{
	while(Macro_Check_Bit_Set(I2C1->SR2, 1)); 					// Idle OK
 8000374:	4a14      	ldr	r2, [pc, #80]	@ (80003c8 <I2C1_SC16IS752_Write_Reg+0x54>)
{
 8000376:	468c      	mov	ip, r1
	while(Macro_Check_Bit_Set(I2C1->SR2, 1)); 					// Idle OK
 8000378:	6993      	ldr	r3, [r2, #24]
 800037a:	0799      	lsls	r1, r3, #30
 800037c:	d4fc      	bmi.n	8000378 <I2C1_SC16IS752_Write_Reg+0x4>

	Macro_Set_Bit(I2C1->CR1, 8); 								// Start
 800037e:	6813      	ldr	r3, [r2, #0]
	while(Macro_Check_Bit_Clear(I2C1->SR1, 0));					// Check Start
 8000380:	4911      	ldr	r1, [pc, #68]	@ (80003c8 <I2C1_SC16IS752_Write_Reg+0x54>)
	Macro_Set_Bit(I2C1->CR1, 8); 								// Start
 8000382:	f443 7380 	orr.w	r3, r3, #256	@ 0x100
 8000386:	6013      	str	r3, [r2, #0]
	while(Macro_Check_Bit_Clear(I2C1->SR1, 0));					// Check Start
 8000388:	694b      	ldr	r3, [r1, #20]
 800038a:	07db      	lsls	r3, r3, #31
 800038c:	d5fc      	bpl.n	8000388 <I2C1_SC16IS752_Write_Reg+0x14>

	I2C1->DR = SC16IS752_I2CADDR_WR ;							// Send WR Address
 800038e:	239a      	movs	r3, #154	@ 0x9a
	while(Macro_Check_Bit_Clear(I2C1->SR1, 1));					// Check Address
 8000390:	4a0d      	ldr	r2, [pc, #52]	@ (80003c8 <I2C1_SC16IS752_Write_Reg+0x54>)
	I2C1->DR = SC16IS752_I2CADDR_WR ;							// Send WR Address
 8000392:	610b      	str	r3, [r1, #16]
	while(Macro_Check_Bit_Clear(I2C1->SR1, 1));					// Check Address
 8000394:	6953      	ldr	r3, [r2, #20]
 8000396:	0799      	lsls	r1, r3, #30
 8000398:	d5fc      	bpl.n	8000394 <I2C1_SC16IS752_Write_Reg+0x20>
	(void)I2C1->SR2;											// Clear ADDR flag by reading SR2

	I2C1->DR = addr << 3;											// Send Register Address
 800039a:	00c3      	lsls	r3, r0, #3
	while(Macro_Check_Bit_Clear(I2C1->SR1, 2));					// Check Byte Transfer Finished
 800039c:	480a      	ldr	r0, [pc, #40]	@ (80003c8 <I2C1_SC16IS752_Write_Reg+0x54>)
	(void)I2C1->SR2;											// Clear ADDR flag by reading SR2
 800039e:	6991      	ldr	r1, [r2, #24]
	I2C1->DR = addr << 3;											// Send Register Address
 80003a0:	6113      	str	r3, [r2, #16]
	while(Macro_Check_Bit_Clear(I2C1->SR1, 2));					// Check Byte Transfer Finished
 80003a2:	6943      	ldr	r3, [r0, #20]
 80003a4:	075b      	lsls	r3, r3, #29
 80003a6:	d5fc      	bpl.n	80003a2 <I2C1_SC16IS752_Write_Reg+0x2e>

	I2C1->DR = data;											// Send Data
	while(Macro_Check_Bit_Clear(I2C1->SR1, 2));					// Check Byte Transfer Finished
 80003a8:	4a07      	ldr	r2, [pc, #28]	@ (80003c8 <I2C1_SC16IS752_Write_Reg+0x54>)
	I2C1->DR = data;											// Send Data
 80003aa:	f8c0 c010 	str.w	ip, [r0, #16]
	while(Macro_Check_Bit_Clear(I2C1->SR1, 2));					// Check Byte Transfer Finished
 80003ae:	6953      	ldr	r3, [r2, #20]
 80003b0:	0759      	lsls	r1, r3, #29
 80003b2:	d5fc      	bpl.n	80003ae <I2C1_SC16IS752_Write_Reg+0x3a>

	Macro_Set_Bit(I2C1->CR1, 9); 								// Stop
 80003b4:	6813      	ldr	r3, [r2, #0]
	while(Macro_Check_Bit_Set(I2C1->CR1, 9));					// Check Stop(Auto Cleared)
 80003b6:	4904      	ldr	r1, [pc, #16]	@ (80003c8 <I2C1_SC16IS752_Write_Reg+0x54>)
	Macro_Set_Bit(I2C1->CR1, 9); 								// Stop
 80003b8:	f443 7300 	orr.w	r3, r3, #512	@ 0x200
 80003bc:	6013      	str	r3, [r2, #0]
	while(Macro_Check_Bit_Set(I2C1->CR1, 9));					// Check Stop(Auto Cleared)
 80003be:	680b      	ldr	r3, [r1, #0]
 80003c0:	059b      	lsls	r3, r3, #22
 80003c2:	d4fc      	bmi.n	80003be <I2C1_SC16IS752_Write_Reg+0x4a>
}
 80003c4:	4770      	bx	lr
 80003c6:	bf00      	nop
 80003c8:	40005400 			@ <UNDEFINED> instruction: 40005400

080003cc <I2C1_SC16IS752_Config_GPIO>:

void I2C1_SC16IS752_Config_GPIO(unsigned int config)
{
 80003cc:	4601      	mov	r1, r0
	I2C1_SC16IS752_Write_Reg(SC16IS752_IODIR, config);
 80003ce:	200a      	movs	r0, #10
 80003d0:	f7ff bfd0 	b.w	8000374 <I2C1_SC16IS752_Write_Reg>

080003d4 <I2C1_SC16IS752_Write_GPIO>:
}

void I2C1_SC16IS752_Write_GPIO(unsigned int data)
{
 80003d4:	4601      	mov	r1, r0
	I2C1_SC16IS752_Write_Reg(SC16IS752_IOSTATE, data);
 80003d6:	200b      	movs	r0, #11
 80003d8:	f7ff bfcc 	b.w	8000374 <I2C1_SC16IS752_Write_Reg>

080003dc <Key_Poll_Init>:
#include "device_driver.h"

void Key_Poll_Init(void)
{
	Macro_Set_Bit(RCC->AHB1ENR, 2); 
 80003dc:	4905      	ldr	r1, [pc, #20]	@ (80003f4 <Key_Poll_Init+0x18>)
	Macro_Write_Block(GPIOC->MODER, 0x3, 0x0, 26);
 80003de:	4a06      	ldr	r2, [pc, #24]	@ (80003f8 <Key_Poll_Init+0x1c>)
	Macro_Set_Bit(RCC->AHB1ENR, 2); 
 80003e0:	6b0b      	ldr	r3, [r1, #48]	@ 0x30
 80003e2:	f043 0304 	orr.w	r3, r3, #4
 80003e6:	630b      	str	r3, [r1, #48]	@ 0x30
	Macro_Write_Block(GPIOC->MODER, 0x3, 0x0, 26);
 80003e8:	6813      	ldr	r3, [r2, #0]
 80003ea:	f023 6340 	bic.w	r3, r3, #201326592	@ 0xc000000
 80003ee:	6013      	str	r3, [r2, #0]
}
 80003f0:	4770      	bx	lr
 80003f2:	bf00      	nop
 80003f4:	40023800 			@ <UNDEFINED> instruction: 40023800
 80003f8:	40020800 			@ <UNDEFINED> instruction: 40020800

080003fc <Key_Get_Pressed>:

int Key_Get_Pressed(void)
{
	return Macro_Check_Bit_Clear(GPIOC->IDR, 13);	
 80003fc:	4b03      	ldr	r3, [pc, #12]	@ (800040c <Key_Get_Pressed+0x10>)
 80003fe:	6918      	ldr	r0, [r3, #16]
 8000400:	f3c0 3040 	ubfx	r0, r0, #13, #1
}
 8000404:	f080 0001 	eor.w	r0, r0, #1
 8000408:	4770      	bx	lr
 800040a:	bf00      	nop
 800040c:	40020800 			@ <UNDEFINED> instruction: 40020800

08000410 <Key_Wait_Key_Pressed>:

void Key_Wait_Key_Pressed(void)
{
	while(!Macro_Check_Bit_Clear(GPIOC->IDR, 13));
 8000410:	4a02      	ldr	r2, [pc, #8]	@ (800041c <Key_Wait_Key_Pressed+0xc>)
 8000412:	6913      	ldr	r3, [r2, #16]
 8000414:	049b      	lsls	r3, r3, #18
 8000416:	d4fc      	bmi.n	8000412 <Key_Wait_Key_Pressed+0x2>
}
 8000418:	4770      	bx	lr
 800041a:	bf00      	nop
 800041c:	40020800 			@ <UNDEFINED> instruction: 40020800

08000420 <Key_Wait_Key_Released>:

void Key_Wait_Key_Released(void)
{
	while(!Macro_Check_Bit_Set(GPIOC->IDR, 13));
 8000420:	4a02      	ldr	r2, [pc, #8]	@ (800042c <Key_Wait_Key_Released+0xc>)
 8000422:	6913      	ldr	r3, [r2, #16]
 8000424:	049b      	lsls	r3, r3, #18
 8000426:	d5fc      	bpl.n	8000422 <Key_Wait_Key_Released+0x2>
}
 8000428:	4770      	bx	lr
 800042a:	bf00      	nop
 800042c:	40020800 			@ <UNDEFINED> instruction: 40020800

08000430 <Key_ISR_Enable>:

void Key_ISR_Enable(int en)
{
	if(en)
 8000430:	b340      	cbz	r0, 8000484 <Key_ISR_Enable+0x54>
	{
		Macro_Set_Bit(RCC->AHB1ENR, 2); 
 8000432:	4a19      	ldr	r2, [pc, #100]	@ (8000498 <Key_ISR_Enable+0x68>)
		Macro_Write_Block(GPIOC->MODER, 0x3, 0x0, 26);
 8000434:	4919      	ldr	r1, [pc, #100]	@ (800049c <Key_ISR_Enable+0x6c>)
		Macro_Set_Bit(RCC->AHB1ENR, 2); 
 8000436:	6b13      	ldr	r3, [r2, #48]	@ 0x30

		Macro_Set_Bit(RCC->APB2ENR, 14); 
		Macro_Write_Block(SYSCFG->EXTICR[3], 0xf, 0x2, 4);
 8000438:	4819      	ldr	r0, [pc, #100]	@ (80004a0 <Key_ISR_Enable+0x70>)
		Macro_Set_Bit(RCC->AHB1ENR, 2); 
 800043a:	f043 0304 	orr.w	r3, r3, #4
 800043e:	6313      	str	r3, [r2, #48]	@ 0x30
		Macro_Write_Block(GPIOC->MODER, 0x3, 0x0, 26);
 8000440:	680b      	ldr	r3, [r1, #0]
 8000442:	f023 6340 	bic.w	r3, r3, #201326592	@ 0xc000000
 8000446:	600b      	str	r3, [r1, #0]
		Macro_Set_Bit(RCC->APB2ENR, 14); 
 8000448:	6c51      	ldr	r1, [r2, #68]	@ 0x44

		Macro_Set_Bit(EXTI->FTSR, 13);
 800044a:	4b16      	ldr	r3, [pc, #88]	@ (80004a4 <Key_ISR_Enable+0x74>)
		Macro_Set_Bit(RCC->APB2ENR, 14); 
 800044c:	f441 4180 	orr.w	r1, r1, #16384	@ 0x4000
 8000450:	6451      	str	r1, [r2, #68]	@ 0x44
		Macro_Write_Block(SYSCFG->EXTICR[3], 0xf, 0x2, 4);
 8000452:	6942      	ldr	r2, [r0, #20]
 */
__STATIC_INLINE void __NVIC_ClearPendingIRQ(IRQn_Type IRQn)
{
  if ((int32_t)(IRQn) >= 0)
  {
    NVIC->ICPR[(((uint32_t)IRQn) >> 5UL)] = (uint32_t)(1UL << (((uint32_t)IRQn) & 0x1FUL));
 8000454:	4914      	ldr	r1, [pc, #80]	@ (80004a8 <Key_ISR_Enable+0x78>)
 8000456:	f022 02f0 	bic.w	r2, r2, #240	@ 0xf0
 800045a:	f042 0220 	orr.w	r2, r2, #32
 800045e:	6142      	str	r2, [r0, #20]
		Macro_Set_Bit(EXTI->FTSR, 13);
 8000460:	68da      	ldr	r2, [r3, #12]
		EXTI->PR = 0x1 << 13;
 8000462:	f44f 5c00 	mov.w	ip, #8192	@ 0x2000
		Macro_Set_Bit(EXTI->FTSR, 13);
 8000466:	f442 5200 	orr.w	r2, r2, #8192	@ 0x2000
 800046a:	f44f 7080 	mov.w	r0, #256	@ 0x100
 800046e:	60da      	str	r2, [r3, #12]
		EXTI->PR = 0x1 << 13;
 8000470:	f8c3 c014 	str.w	ip, [r3, #20]
 8000474:	f8c1 0184 	str.w	r0, [r1, #388]	@ 0x184
		
		NVIC_ClearPendingIRQ((IRQn_Type)40);
		Macro_Set_Bit(EXTI->IMR, 13);
 8000478:	681a      	ldr	r2, [r3, #0]
 800047a:	ea42 020c 	orr.w	r2, r2, ip
 800047e:	601a      	str	r2, [r3, #0]
    NVIC->ISER[(((uint32_t)IRQn) >> 5UL)] = (uint32_t)(1UL << (((uint32_t)IRQn) & 0x1FUL));
 8000480:	6048      	str	r0, [r1, #4]
    __COMPILER_BARRIER();
 8000482:	4770      	bx	lr
    NVIC->ICER[(((uint32_t)IRQn) >> 5UL)] = (uint32_t)(1UL << (((uint32_t)IRQn) & 0x1FUL));
 8000484:	4b08      	ldr	r3, [pc, #32]	@ (80004a8 <Key_ISR_Enable+0x78>)
 8000486:	f44f 7280 	mov.w	r2, #256	@ 0x100
 800048a:	f8c3 2084 	str.w	r2, [r3, #132]	@ 0x84
  \details Acts as a special kind of Data Memory Barrier.
           It completes when all explicit memory accesses before this instruction complete.
 */
__STATIC_FORCEINLINE void __DSB(void)
{
  __ASM volatile ("dsb 0xF":::"memory");
 800048e:	f3bf 8f4f 	dsb	sy
  __ASM volatile ("isb 0xF":::"memory");
 8000492:	f3bf 8f6f 	isb	sy

	else
	{
		NVIC_DisableIRQ((IRQn_Type)40);
	}
}
 8000496:	4770      	bx	lr
 8000498:	40023800 			@ <UNDEFINED> instruction: 40023800
 800049c:	40020800 			@ <UNDEFINED> instruction: 40020800
 80004a0:	40013800 			@ <UNDEFINED> instruction: 40013800
 80004a4:	40013c00 			@ <UNDEFINED> instruction: 40013c00
 80004a8:	e000e100 			@ <UNDEFINED> instruction: e000e100

080004ac <LED_Init>:
#include "device_driver.h"

void LED_Init(void)
{
	/* 아래 코드 수정 금지 : Port-A Clock Enable */
	Macro_Set_Bit(RCC->AHB1ENR, 0); 
 80004ac:	490a      	ldr	r1, [pc, #40]	@ (80004d8 <LED_Init+0x2c>)

	// LED를 출력으로 설정하고 초기 OFF
	Macro_Write_Block(GPIOA->MODER, 0x3, 0x1, 10);
 80004ae:	4b0b      	ldr	r3, [pc, #44]	@ (80004dc <LED_Init+0x30>)
	Macro_Set_Bit(RCC->AHB1ENR, 0); 
 80004b0:	6b0a      	ldr	r2, [r1, #48]	@ 0x30
 80004b2:	f042 0201 	orr.w	r2, r2, #1
 80004b6:	630a      	str	r2, [r1, #48]	@ 0x30
	Macro_Write_Block(GPIOA->MODER, 0x3, 0x1, 10);
 80004b8:	681a      	ldr	r2, [r3, #0]
 80004ba:	f422 6240 	bic.w	r2, r2, #3072	@ 0xc00
 80004be:	f442 6280 	orr.w	r2, r2, #1024	@ 0x400
 80004c2:	601a      	str	r2, [r3, #0]
	Macro_Clear_Bit(GPIOA->OTYPER, 5);
 80004c4:	685a      	ldr	r2, [r3, #4]
 80004c6:	f022 0220 	bic.w	r2, r2, #32
 80004ca:	605a      	str	r2, [r3, #4]
	Macro_Clear_Bit(GPIOA->ODR, 5); 
 80004cc:	695a      	ldr	r2, [r3, #20]
 80004ce:	f022 0220 	bic.w	r2, r2, #32
 80004d2:	615a      	str	r2, [r3, #20]
}
 80004d4:	4770      	bx	lr
 80004d6:	bf00      	nop
 80004d8:	40023800 			@ <UNDEFINED> instruction: 40023800
 80004dc:	40020000 			@ <UNDEFINED> instruction: 40020000

080004e0 <LED_On>:

void LED_On(void)
{
	// LED On
	Macro_Set_Bit(GPIOA->ODR, 5); 
 80004e0:	4a02      	ldr	r2, [pc, #8]	@ (80004ec <LED_On+0xc>)
 80004e2:	6953      	ldr	r3, [r2, #20]
 80004e4:	f043 0320 	orr.w	r3, r3, #32
 80004e8:	6153      	str	r3, [r2, #20]
}
 80004ea:	4770      	bx	lr
 80004ec:	40020000 			@ <UNDEFINED> instruction: 40020000

080004f0 <LED_Off>:

void LED_Off(void)
{
	// LED Off
	Macro_Clear_Bit(GPIOA->ODR, 5); 
 80004f0:	4a02      	ldr	r2, [pc, #8]	@ (80004fc <LED_Off+0xc>)
 80004f2:	6953      	ldr	r3, [r2, #20]
 80004f4:	f023 0320 	bic.w	r3, r3, #32
 80004f8:	6153      	str	r3, [r2, #20]
}
 80004fa:	4770      	bx	lr
 80004fc:	40020000 			@ <UNDEFINED> instruction: 40020000

08000500 <Main>:
	setvbuf(stdout, NULL, _IONBF, 0);
	LED_Init();
}

void Main(void)
{
 8000500:	b500      	push	{lr}
	SCB->CPACR |= (0x3 << 10*2)|(0x3 << 11*2); 
 8000502:	4a24      	ldr	r2, [pc, #144]	@ (8000594 <Main+0x94>)
		for(i = 0; i < 8; i++)
		{
			data = ~(1u << i);
			SPI1_SC16IS752_Write_GPIO(data);
			printf("LED[%d] ON, Value = 0x%.2X\n", i, (unsigned char)data);
			for(j = 0; j < 1000000; j++);
 8000504:	4c24      	ldr	r4, [pc, #144]	@ (8000598 <Main+0x98>)
	SCB->CPACR |= (0x3 << 10*2)|(0x3 << 11*2); 
 8000506:	f8d2 3088 	ldr.w	r3, [r2, #136]	@ 0x88
 800050a:	f443 0370 	orr.w	r3, r3, #15728640	@ 0xf00000
{
 800050e:	b085      	sub	sp, #20
	SCB->CPACR |= (0x3 << 10*2)|(0x3 << 11*2); 
 8000510:	f8c2 3088 	str.w	r3, [r2, #136]	@ 0x88
	Clock_Init();
 8000514:	f7ff fe76 	bl	8000204 <Clock_Init>
	Uart2_Init(baud);
 8000518:	f44f 30e1 	mov.w	r0, #115200	@ 0x1c200
 800051c:	f000 fb3c 	bl	8000b98 <Uart2_Init>
	setvbuf(stdout, NULL, _IONBF, 0);
 8000520:	4a1e      	ldr	r2, [pc, #120]	@ (800059c <Main+0x9c>)
 8000522:	6811      	ldr	r1, [r2, #0]
 8000524:	2300      	movs	r3, #0
 8000526:	2202      	movs	r2, #2
 8000528:	6888      	ldr	r0, [r1, #8]
 800052a:	4619      	mov	r1, r3
 800052c:	f001 ff76 	bl	800241c <setvbuf>
	LED_Init();
 8000530:	f7ff ffbc 	bl	80004ac <LED_Init>
	printf("SPI BUS Interface Test\n");
 8000534:	481a      	ldr	r0, [pc, #104]	@ (80005a0 <Main+0xa0>)
 8000536:	f001 ff5f 	bl	80023f8 <iprintf>
	SPI1_SC16IS752_Init(32); 			
 800053a:	2020      	movs	r0, #32
 800053c:	f000 f878 	bl	8000630 <SPI1_SC16IS752_Init>
	SPI1_SC16IS752_Config_GPIO(0xFF);
 8000540:	20ff      	movs	r0, #255	@ 0xff
 8000542:	f000 f911 	bl	8000768 <SPI1_SC16IS752_Config_GPIO>
		for(i = 0; i < 8; i++)
 8000546:	2300      	movs	r3, #0
 8000548:	9301      	str	r3, [sp, #4]
 800054a:	9b01      	ldr	r3, [sp, #4]
 800054c:	2b07      	cmp	r3, #7
 800054e:	dcfa      	bgt.n	8000546 <Main+0x46>
			data = ~(1u << i);
 8000550:	2501      	movs	r5, #1
 8000552:	9b01      	ldr	r3, [sp, #4]
 8000554:	fa05 f303 	lsl.w	r3, r5, r3
 8000558:	43db      	mvns	r3, r3
 800055a:	9303      	str	r3, [sp, #12]
			SPI1_SC16IS752_Write_GPIO(data);
 800055c:	9803      	ldr	r0, [sp, #12]
 800055e:	f000 f923 	bl	80007a8 <SPI1_SC16IS752_Write_GPIO>
			printf("LED[%d] ON, Value = 0x%.2X\n", i, (unsigned char)data);
 8000562:	9901      	ldr	r1, [sp, #4]
 8000564:	9a03      	ldr	r2, [sp, #12]
 8000566:	480f      	ldr	r0, [pc, #60]	@ (80005a4 <Main+0xa4>)
 8000568:	b2d2      	uxtb	r2, r2
 800056a:	f001 ff45 	bl	80023f8 <iprintf>
			for(j = 0; j < 1000000; j++);
 800056e:	2300      	movs	r3, #0
 8000570:	9302      	str	r3, [sp, #8]
 8000572:	9b02      	ldr	r3, [sp, #8]
 8000574:	42a3      	cmp	r3, r4
 8000576:	dc05      	bgt.n	8000584 <Main+0x84>
 8000578:	9b02      	ldr	r3, [sp, #8]
 800057a:	3301      	adds	r3, #1
 800057c:	9302      	str	r3, [sp, #8]
 800057e:	9b02      	ldr	r3, [sp, #8]
 8000580:	42a3      	cmp	r3, r4
 8000582:	ddf9      	ble.n	8000578 <Main+0x78>
		for(i = 0; i < 8; i++)
 8000584:	9b01      	ldr	r3, [sp, #4]
 8000586:	3301      	adds	r3, #1
 8000588:	9301      	str	r3, [sp, #4]
 800058a:	9b01      	ldr	r3, [sp, #4]
 800058c:	2b07      	cmp	r3, #7
 800058e:	dcda      	bgt.n	8000546 <Main+0x46>
 8000590:	e7df      	b.n	8000552 <Main+0x52>
 8000592:	bf00      	nop
 8000594:	e000ed00 			@ <UNDEFINED> instruction: e000ed00
 8000598:	000f423f 			@ <UNDEFINED> instruction: 000f423f
 800059c:	20000004 			@ <UNDEFINED> instruction: 20000004
 80005a0:	08005398 			@ <UNDEFINED> instruction: 08005398
 80005a4:	080053b0 			@ <UNDEFINED> instruction: 080053b0

080005a8 <_sbrk>:
	static char * heap = (char *)0;

	char * prevHeap;
	char * nextHeap;

	if(heap == (char *)0) heap = (char *)HEAP_BASE;
 80005a8:	490b      	ldr	r1, [pc, #44]	@ (80005d8 <_sbrk+0x30>)
 80005aa:	4b0c      	ldr	r3, [pc, #48]	@ (80005dc <_sbrk+0x34>)
 80005ac:	680a      	ldr	r2, [r1, #0]
 80005ae:	f023 0307 	bic.w	r3, r3, #7
 80005b2:	b162      	cbz	r2, 80005ce <_sbrk+0x26>

	prevHeap = heap;
	nextHeap = (char *)((((unsigned int)heap + inc) + 0x7) & ~0x7);
 80005b4:	4694      	mov	ip, r2
 80005b6:	3007      	adds	r0, #7
 80005b8:	4460      	add	r0, ip
 80005ba:	f020 0007 	bic.w	r0, r0, #7

	if((unsigned int)nextHeap >= HEAP_LIMIT) return (char *)0;
 80005be:	f503 5380 	add.w	r3, r3, #4096	@ 0x1000
 80005c2:	4298      	cmp	r0, r3
 80005c4:	bf2c      	ite	cs
 80005c6:	2200      	movcs	r2, #0

	heap = nextHeap;
 80005c8:	6008      	strcc	r0, [r1, #0]
	return prevHeap;
}
 80005ca:	4610      	mov	r0, r2
 80005cc:	4770      	bx	lr
	if(heap == (char *)0) heap = (char *)HEAP_BASE;
 80005ce:	461a      	mov	r2, r3
 80005d0:	600b      	str	r3, [r1, #0]
 80005d2:	469c      	mov	ip, r3
 80005d4:	e7ef      	b.n	80005b6 <_sbrk+0xe>
 80005d6:	bf00      	nop
 80005d8:	200001cc 			@ <UNDEFINED> instruction: 200001cc
 80005dc:	2000032b 			@ <UNDEFINED> instruction: 2000032b

080005e0 <_write>:

int _write(int file, char *ptr, int len) 
{
 80005e0:	b570      	push	{r4, r5, r6, lr}
    for (int i = 0; i < len; i++) 
 80005e2:	1e16      	subs	r6, r2, #0
 80005e4:	dd07      	ble.n	80005f6 <_write+0x16>
 80005e6:	460c      	mov	r4, r1
 80005e8:	198d      	adds	r5, r1, r6
	{
        Uart2_Send_Byte(*ptr++);
 80005ea:	f814 0b01 	ldrb.w	r0, [r4], #1
 80005ee:	f000 fb49 	bl	8000c84 <Uart2_Send_Byte>
    for (int i = 0; i < len; i++) 
 80005f2:	42a5      	cmp	r5, r4
 80005f4:	d1f9      	bne.n	80005ea <_write+0xa>
    }
    
	return len;
}
 80005f6:	4630      	mov	r0, r6
 80005f8:	bd70      	pop	{r4, r5, r6, pc}
 80005fa:	bf00      	nop

080005fc <_read>:

int _read(int file, char *ptr, int len) 
{ 
	return 0; 
}
 80005fc:	2000      	movs	r0, #0
 80005fe:	4770      	bx	lr

08000600 <_lseek>:

int _lseek(int file, int ptr, int dir)  
{ 
	return 0; 
}
 8000600:	2000      	movs	r0, #0
 8000602:	4770      	bx	lr

08000604 <_close>:

int _close(int file) 
{ 
	return -1; 
}
 8000604:	f04f 30ff 	mov.w	r0, #4294967295
 8000608:	4770      	bx	lr
 800060a:	bf00      	nop

0800060c <_fstat>:

int _fstat(int file, struct stat *st) 
{
    st->st_mode = S_IFCHR;
 800060c:	f44f 5300 	mov.w	r3, #8192	@ 0x2000
 8000610:	604b      	str	r3, [r1, #4]
    return 0;
}
 8000612:	2000      	movs	r0, #0
 8000614:	4770      	bx	lr
 8000616:	bf00      	nop

08000618 <_isatty>:

int _isatty(int file) 
{ 
	return 1; 
}
 8000618:	2001      	movs	r0, #1
 800061a:	4770      	bx	lr

0800061c <_getpid>:

int _getpid(void) 
{
    return 1;
}
 800061c:	2001      	movs	r0, #1
 800061e:	4770      	bx	lr

08000620 <_kill>:

int _kill(int pid, int sig)
{
 8000620:	b508      	push	{r3, lr}
    (void)pid;
    (void)sig;
    
    errno = EINVAL;
 8000622:	f001 ffd9 	bl	80025d8 <__errno>
 8000626:	2316      	movs	r3, #22
 8000628:	6003      	str	r3, [r0, #0]
    return -1;
 800062a:	f04f 30ff 	mov.w	r0, #4294967295
 800062e:	bd08      	pop	{r3, pc}

08000630 <SPI1_SC16IS752_Init>:
	/* __builtin_ctz 함수 : 컴파일러 빌트인 함수, 0번 비트부터 0의 개수를 반환 */

	int n = (__builtin_ctz(div) & 0x7) - 1; 
	volatile int i;

	Macro_Set_Bit(RCC->AHB1ENR, 0); 					// Port-A Clock On
 8000630:	4b36      	ldr	r3, [pc, #216]	@ (800070c <SPI1_SC16IS752_Init+0xdc>)
 8000632:	6b1a      	ldr	r2, [r3, #48]	@ 0x30
 8000634:	f042 0201 	orr.w	r2, r2, #1
{
 8000638:	b082      	sub	sp, #8
	Macro_Set_Bit(RCC->AHB1ENR, 0); 					// Port-A Clock On
 800063a:	631a      	str	r2, [r3, #48]	@ 0x30
	Macro_Set_Bit(RCC->AHB1ENR, 1); 					// Port-B Clock On
 800063c:	6b19      	ldr	r1, [r3, #48]	@ 0x30
 800063e:	f041 0102 	orr.w	r1, r1, #2
 8000642:	6319      	str	r1, [r3, #48]	@ 0x30
	Macro_Set_Bit(RCC->APB2ENR, 12); 					// SPI1 Clock On
 8000644:	6c59      	ldr	r1, [r3, #68]	@ 0x44
 8000646:	f441 5180 	orr.w	r1, r1, #4096	@ 0x1000
 800064a:	6459      	str	r1, [r3, #68]	@ 0x44

	Macro_Clear_Bit(RCC->APB2RSTR, 12); 				// SPI1 Reset
 800064c:	6a59      	ldr	r1, [r3, #36]	@ 0x24
 800064e:	f421 5180 	bic.w	r1, r1, #4096	@ 0x1000
 8000652:	6259      	str	r1, [r3, #36]	@ 0x24
	Macro_Set_Bit(RCC->APB2RSTR, 12);
 8000654:	6a59      	ldr	r1, [r3, #36]	@ 0x24
	for(i = 0; i < 1000; i++);
 8000656:	f04f 0c00 	mov.w	ip, #0
	Macro_Set_Bit(RCC->APB2RSTR, 12);
 800065a:	f441 5180 	orr.w	r1, r1, #4096	@ 0x1000
 800065e:	6259      	str	r1, [r3, #36]	@ 0x24
	for(i = 0; i < 1000; i++);
 8000660:	f8cd c004 	str.w	ip, [sp, #4]
 8000664:	9b01      	ldr	r3, [sp, #4]
	int n = (__builtin_ctz(div) & 0x7) - 1; 
 8000666:	fa90 f2a0 	rbit	r2, r0
 800066a:	fab2 f282 	clz	r2, r2
 800066e:	f002 0207 	and.w	r2, r2, #7
	for(i = 0; i < 1000; i++);
 8000672:	f5b3 7f7a 	cmp.w	r3, #1000	@ 0x3e8
	int n = (__builtin_ctz(div) & 0x7) - 1; 
 8000676:	f102 32ff 	add.w	r2, r2, #4294967295
	for(i = 0; i < 1000; i++);
 800067a:	da06      	bge.n	800068a <SPI1_SC16IS752_Init+0x5a>
 800067c:	9b01      	ldr	r3, [sp, #4]
 800067e:	3301      	adds	r3, #1
 8000680:	9301      	str	r3, [sp, #4]
 8000682:	9b01      	ldr	r3, [sp, #4]
 8000684:	f5b3 7f7a 	cmp.w	r3, #1000	@ 0x3e8
 8000688:	dbf8      	blt.n	800067c <SPI1_SC16IS752_Init+0x4c>
	Macro_Clear_Bit(RCC->APB2RSTR, 12);
 800068a:	f8df c080 	ldr.w	ip, [pc, #128]	@ 800070c <SPI1_SC16IS752_Init+0xdc>

	Macro_Write_Block(GPIOA->MODER, 0x3, 0x1, 16);		// PA8(nCS) => GP-Out
 800068e:	4920      	ldr	r1, [pc, #128]	@ (8000710 <SPI1_SC16IS752_Init+0xe0>)
	Macro_Clear_Bit(RCC->APB2RSTR, 12);
 8000690:	f8dc 0024 	ldr.w	r0, [ip, #36]	@ 0x24
	Macro_Clear_Bit(GPIOA->OTYPER, 8);					// PA8(nCS) => Push-Pull
	Macro_Set_Bit(GPIOA->ODR, 8); 						// PA8(nCS) => High

	Macro_Write_Block(GPIOB->MODER, 0x3f, 0x2a, 6);  	// PB[5:3] => ALT
 8000694:	4b1f      	ldr	r3, [pc, #124]	@ (8000714 <SPI1_SC16IS752_Init+0xe4>)
	Macro_Clear_Bit(RCC->APB2RSTR, 12);
 8000696:	f420 5080 	bic.w	r0, r0, #4096	@ 0x1000
 800069a:	f8cc 0024 	str.w	r0, [ip, #36]	@ 0x24
	Macro_Write_Block(GPIOA->MODER, 0x3, 0x1, 16);		// PA8(nCS) => GP-Out
 800069e:	6808      	ldr	r0, [r1, #0]
 80006a0:	f420 3040 	bic.w	r0, r0, #196608	@ 0x30000
 80006a4:	f440 3080 	orr.w	r0, r0, #65536	@ 0x10000
 80006a8:	6008      	str	r0, [r1, #0]
	Macro_Clear_Bit(GPIOA->OTYPER, 8);					// PA8(nCS) => Push-Pull
 80006aa:	6848      	ldr	r0, [r1, #4]
 80006ac:	f420 7080 	bic.w	r0, r0, #256	@ 0x100
 80006b0:	6048      	str	r0, [r1, #4]
	Macro_Set_Bit(GPIOA->ODR, 8); 						// PA8(nCS) => High
 80006b2:	6948      	ldr	r0, [r1, #20]
 80006b4:	f440 7080 	orr.w	r0, r0, #256	@ 0x100
 80006b8:	6148      	str	r0, [r1, #20]
	Macro_Write_Block(GPIOB->MODER, 0x3f, 0x2a, 6);  	// PB[5:3] => ALT
 80006ba:	6819      	ldr	r1, [r3, #0]
	Macro_Write_Block(GPIOB->AFR[0], 0xfff, 0x555, 12); // PB[5:3] => AF05
	Macro_Write_Block(GPIOB->OTYPER, 0x7, 0x0, 6); 		// PB[5:3] => Push-Pull
	Macro_Write_Block(GPIOB->OSPEEDR, 0x3f, 0x2a, 12); 	// PB[5:3] => Fast Speed

	SPI1->CR2 = (0<<4)|(1<<2);
 80006bc:	4816      	ldr	r0, [pc, #88]	@ (8000718 <SPI1_SC16IS752_Init+0xe8>)
	Macro_Write_Block(GPIOB->MODER, 0x3f, 0x2a, 6);  	// PB[5:3] => ALT
 80006be:	f421 617c 	bic.w	r1, r1, #4032	@ 0xfc0
 80006c2:	f441 6128 	orr.w	r1, r1, #2688	@ 0xa80
 80006c6:	6019      	str	r1, [r3, #0]
	Macro_Write_Block(GPIOB->AFR[0], 0xfff, 0x555, 12); // PB[5:3] => AF05
 80006c8:	6a19      	ldr	r1, [r3, #32]
 80006ca:	f36f 3117 	bfc	r1, #12, #12
 80006ce:	f441 01aa 	orr.w	r1, r1, #5570560	@ 0x550000
 80006d2:	f441 41a0 	orr.w	r1, r1, #20480	@ 0x5000
 80006d6:	6219      	str	r1, [r3, #32]
	Macro_Write_Block(GPIOB->OTYPER, 0x7, 0x0, 6); 		// PB[5:3] => Push-Pull
 80006d8:	6859      	ldr	r1, [r3, #4]
 80006da:	f421 71e0 	bic.w	r1, r1, #448	@ 0x1c0
 80006de:	6059      	str	r1, [r3, #4]
	Macro_Write_Block(GPIOB->OSPEEDR, 0x3f, 0x2a, 12); 	// PB[5:3] => Fast Speed
 80006e0:	6899      	ldr	r1, [r3, #8]
 80006e2:	f421 317c 	bic.w	r1, r1, #258048	@ 0x3f000
 80006e6:	f441 3128 	orr.w	r1, r1, #172032	@ 0x2a000
 80006ea:	6099      	str	r1, [r3, #8]
	SPI1->CR1 = (1<<11)|(0<<10)|(0<<9)|(0<<8)|(0<<7)|(n<<3)|(1<<2)|(0<<1)|(0<<0);
 80006ec:	f640 0304 	movw	r3, #2052	@ 0x804
 80006f0:	ea43 03c2 	orr.w	r3, r3, r2, lsl #3
	SPI1->CR2 = (0<<4)|(1<<2);
 80006f4:	f04f 0c04 	mov.w	ip, #4
 80006f8:	f8c0 c004 	str.w	ip, [r0, #4]
	SPI1->CR1 = (1<<11)|(0<<10)|(0<<9)|(0<<8)|(0<<7)|(n<<3)|(1<<2)|(0<<1)|(0<<0);
 80006fc:	6003      	str	r3, [r0, #0]
	Macro_Set_Bit(SPI1->CR1, 6);
 80006fe:	6803      	ldr	r3, [r0, #0]
 8000700:	f043 0340 	orr.w	r3, r3, #64	@ 0x40
 8000704:	6003      	str	r3, [r0, #0]
}
 8000706:	b002      	add	sp, #8
 8000708:	4770      	bx	lr
 800070a:	bf00      	nop
 800070c:	40023800 			@ <UNDEFINED> instruction: 40023800
 8000710:	40020000 			@ <UNDEFINED> instruction: 40020000
 8000714:	40020400 			@ <UNDEFINED> instruction: 40020400
 8000718:	40013000 			@ <UNDEFINED> instruction: 40013000

0800071c <SPI1_SC16IS752_Write_Reg>:

#define SPI1_CS_HIGH()		(Macro_Set_Bit(GPIOA->ODR, 8))
#define SPI1_CS_LOW()		(Macro_Clear_Bit(GPIOA->ODR, 8))

void SPI1_SC16IS752_Write_Reg(unsigned int addr, unsigned int data)
{
 800071c:	b500      	push	{lr}
	SPI1_CS_HIGH();
 800071e:	4b10      	ldr	r3, [pc, #64]	@ (8000760 <SPI1_SC16IS752_Write_Reg+0x44>)
 8000720:	695a      	ldr	r2, [r3, #20]
 8000722:	f442 7280 	orr.w	r2, r2, #256	@ 0x100
 8000726:	615a      	str	r2, [r3, #20]
	SPI1_CS_LOW();
 8000728:	f8d3 c014 	ldr.w	ip, [r3, #20]

	SPI1->DR = (0 << 15) | ((addr & 0xf) << 11) | (data & 0xff);
 800072c:	4a0d      	ldr	r2, [pc, #52]	@ (8000764 <SPI1_SC16IS752_Write_Reg+0x48>)
 800072e:	02c0      	lsls	r0, r0, #11
 8000730:	fa5f fe81 	uxtb.w	lr, r1
 8000734:	f400 40f0 	and.w	r0, r0, #30720	@ 0x7800
	SPI1_CS_LOW();
 8000738:	f42c 7180 	bic.w	r1, ip, #256	@ 0x100
	SPI1->DR = (0 << 15) | ((addr & 0xf) << 11) | (data & 0xff);
 800073c:	ea40 000e 	orr.w	r0, r0, lr
	SPI1_CS_LOW();
 8000740:	6159      	str	r1, [r3, #20]
	SPI1->DR = (0 << 15) | ((addr & 0xf) << 11) | (data & 0xff);
 8000742:	60d0      	str	r0, [r2, #12]
	while(Macro_Check_Bit_Clear(SPI1->SR, 1));
 8000744:	6893      	ldr	r3, [r2, #8]
 8000746:	0799      	lsls	r1, r3, #30
 8000748:	d5fc      	bpl.n	8000744 <SPI1_SC16IS752_Write_Reg+0x28>
	while(Macro_Check_Bit_Set(SPI1->SR, 7));
 800074a:	4a06      	ldr	r2, [pc, #24]	@ (8000764 <SPI1_SC16IS752_Write_Reg+0x48>)
 800074c:	6893      	ldr	r3, [r2, #8]
 800074e:	061b      	lsls	r3, r3, #24
 8000750:	d4fc      	bmi.n	800074c <SPI1_SC16IS752_Write_Reg+0x30>

	SPI1_CS_HIGH();
 8000752:	4a03      	ldr	r2, [pc, #12]	@ (8000760 <SPI1_SC16IS752_Write_Reg+0x44>)
 8000754:	6953      	ldr	r3, [r2, #20]
 8000756:	f443 7380 	orr.w	r3, r3, #256	@ 0x100
 800075a:	6153      	str	r3, [r2, #20]
}
 800075c:	bd00      	pop	{pc}
 800075e:	bf00      	nop
 8000760:	40020000 			@ <UNDEFINED> instruction: 40020000
 8000764:	40013000 			@ <UNDEFINED> instruction: 40013000

08000768 <SPI1_SC16IS752_Config_GPIO>:
	SPI1_CS_HIGH();
 8000768:	4b0d      	ldr	r3, [pc, #52]	@ (80007a0 <SPI1_SC16IS752_Config_GPIO+0x38>)
	SPI1->DR = (0 << 15) | ((addr & 0xf) << 11) | (data & 0xff);
 800076a:	4a0e      	ldr	r2, [pc, #56]	@ (80007a4 <SPI1_SC16IS752_Config_GPIO+0x3c>)
	SPI1_CS_HIGH();
 800076c:	6959      	ldr	r1, [r3, #20]
 800076e:	f441 7180 	orr.w	r1, r1, #256	@ 0x100
 8000772:	6159      	str	r1, [r3, #20]
	SPI1_CS_LOW();
 8000774:	6959      	ldr	r1, [r3, #20]
	SPI1->DR = (0 << 15) | ((addr & 0xf) << 11) | (data & 0xff);
 8000776:	b2c0      	uxtb	r0, r0
	SPI1_CS_LOW();
 8000778:	f421 7180 	bic.w	r1, r1, #256	@ 0x100
	SPI1->DR = (0 << 15) | ((addr & 0xf) << 11) | (data & 0xff);
 800077c:	f440 40a0 	orr.w	r0, r0, #20480	@ 0x5000
	SPI1_CS_LOW();
 8000780:	6159      	str	r1, [r3, #20]
	SPI1->DR = (0 << 15) | ((addr & 0xf) << 11) | (data & 0xff);
 8000782:	60d0      	str	r0, [r2, #12]
	while(Macro_Check_Bit_Clear(SPI1->SR, 1));
 8000784:	6893      	ldr	r3, [r2, #8]
 8000786:	0799      	lsls	r1, r3, #30
 8000788:	d5fc      	bpl.n	8000784 <SPI1_SC16IS752_Config_GPIO+0x1c>
	while(Macro_Check_Bit_Set(SPI1->SR, 7));
 800078a:	4a06      	ldr	r2, [pc, #24]	@ (80007a4 <SPI1_SC16IS752_Config_GPIO+0x3c>)
 800078c:	6893      	ldr	r3, [r2, #8]
 800078e:	061b      	lsls	r3, r3, #24
 8000790:	d4fc      	bmi.n	800078c <SPI1_SC16IS752_Config_GPIO+0x24>
	SPI1_CS_HIGH();
 8000792:	4a03      	ldr	r2, [pc, #12]	@ (80007a0 <SPI1_SC16IS752_Config_GPIO+0x38>)
 8000794:	6953      	ldr	r3, [r2, #20]
 8000796:	f443 7380 	orr.w	r3, r3, #256	@ 0x100
 800079a:	6153      	str	r3, [r2, #20]

void SPI1_SC16IS752_Config_GPIO(unsigned int config)
{
	SPI1_SC16IS752_Write_Reg(SC16IS752_IODIR, config);
}
 800079c:	4770      	bx	lr
 800079e:	bf00      	nop
 80007a0:	40020000 			@ <UNDEFINED> instruction: 40020000
 80007a4:	40013000 			@ <UNDEFINED> instruction: 40013000

080007a8 <SPI1_SC16IS752_Write_GPIO>:
	SPI1_CS_HIGH();
 80007a8:	4b0d      	ldr	r3, [pc, #52]	@ (80007e0 <SPI1_SC16IS752_Write_GPIO+0x38>)
	SPI1->DR = (0 << 15) | ((addr & 0xf) << 11) | (data & 0xff);
 80007aa:	4a0e      	ldr	r2, [pc, #56]	@ (80007e4 <SPI1_SC16IS752_Write_GPIO+0x3c>)
	SPI1_CS_HIGH();
 80007ac:	6959      	ldr	r1, [r3, #20]
 80007ae:	f441 7180 	orr.w	r1, r1, #256	@ 0x100
 80007b2:	6159      	str	r1, [r3, #20]
	SPI1_CS_LOW();
 80007b4:	6959      	ldr	r1, [r3, #20]
	SPI1->DR = (0 << 15) | ((addr & 0xf) << 11) | (data & 0xff);
 80007b6:	b2c0      	uxtb	r0, r0
	SPI1_CS_LOW();
 80007b8:	f421 7180 	bic.w	r1, r1, #256	@ 0x100
	SPI1->DR = (0 << 15) | ((addr & 0xf) << 11) | (data & 0xff);
 80007bc:	f440 40b0 	orr.w	r0, r0, #22528	@ 0x5800
	SPI1_CS_LOW();
 80007c0:	6159      	str	r1, [r3, #20]
	SPI1->DR = (0 << 15) | ((addr & 0xf) << 11) | (data & 0xff);
 80007c2:	60d0      	str	r0, [r2, #12]
	while(Macro_Check_Bit_Clear(SPI1->SR, 1));
 80007c4:	6893      	ldr	r3, [r2, #8]
 80007c6:	0799      	lsls	r1, r3, #30
 80007c8:	d5fc      	bpl.n	80007c4 <SPI1_SC16IS752_Write_GPIO+0x1c>
	while(Macro_Check_Bit_Set(SPI1->SR, 7));
 80007ca:	4a06      	ldr	r2, [pc, #24]	@ (80007e4 <SPI1_SC16IS752_Write_GPIO+0x3c>)
 80007cc:	6893      	ldr	r3, [r2, #8]
 80007ce:	061b      	lsls	r3, r3, #24
 80007d0:	d4fc      	bmi.n	80007cc <SPI1_SC16IS752_Write_GPIO+0x24>
	SPI1_CS_HIGH();
 80007d2:	4a03      	ldr	r2, [pc, #12]	@ (80007e0 <SPI1_SC16IS752_Write_GPIO+0x38>)
 80007d4:	6953      	ldr	r3, [r2, #20]
 80007d6:	f443 7380 	orr.w	r3, r3, #256	@ 0x100
 80007da:	6153      	str	r3, [r2, #20]

void SPI1_SC16IS752_Write_GPIO(unsigned int data)
{
	SPI1_SC16IS752_Write_Reg(SC16IS752_IOSTATE, data);
}
 80007dc:	4770      	bx	lr
 80007de:	bf00      	nop
 80007e0:	40020000 			@ <UNDEFINED> instruction: 40020000
 80007e4:	40013000 			@ <UNDEFINED> instruction: 40013000

080007e8 <SystemInit>:
  */
void SystemInit(void)
{
  /* FPU settings ------------------------------------------------------------*/
  #if (__FPU_PRESENT == 1) && (__FPU_USED == 1)
    SCB->CPACR |= ((3UL << 10*2)|(3UL << 11*2));  /* set CP10 and CP11 Full Access */
 80007e8:	4a03      	ldr	r2, [pc, #12]	@ (80007f8 <SystemInit+0x10>)
 80007ea:	f8d2 3088 	ldr.w	r3, [r2, #136]	@ 0x88
 80007ee:	f443 0370 	orr.w	r3, r3, #15728640	@ 0xf00000
 80007f2:	f8c2 3088 	str.w	r3, [r2, #136]	@ 0x88

  /* Configure the Vector Table location -------------------------------------*/
#if defined(USER_VECT_TAB_ADDRESS)
  SCB->VTOR = VECT_TAB_BASE_ADDRESS | VECT_TAB_OFFSET; /* Vector Table Relocation in Internal SRAM */
#endif /* USER_VECT_TAB_ADDRESS */
}
 80007f6:	4770      	bx	lr
 80007f8:	e000ed00 			@ <UNDEFINED> instruction: e000ed00

080007fc <SystemCoreClockUpdate>:
void SystemCoreClockUpdate(void)
{
  uint32_t tmp, pllvco, pllp, pllsource, pllm;
  
  /* Get SYSCLK source -------------------------------------------------------*/
  tmp = RCC->CFGR & RCC_CFGR_SWS;
 80007fc:	4a16      	ldr	r2, [pc, #88]	@ (8000858 <SystemCoreClockUpdate+0x5c>)
 80007fe:	6893      	ldr	r3, [r2, #8]
 8000800:	f003 030c 	and.w	r3, r3, #12

  switch (tmp)
 8000804:	2b04      	cmp	r3, #4
 8000806:	d025      	beq.n	8000854 <SystemCoreClockUpdate+0x58>
 8000808:	2b08      	cmp	r3, #8
 800080a:	d00a      	beq.n	8000822 <SystemCoreClockUpdate+0x26>
 800080c:	4b13      	ldr	r3, [pc, #76]	@ (800085c <SystemCoreClockUpdate+0x60>)
      SystemCoreClock = HSI_VALUE;
      break;
  }
  /* Compute HCLK frequency --------------------------------------------------*/
  /* Get HCLK prescaler */
  tmp = AHBPrescTable[((RCC->CFGR & RCC_CFGR_HPRE) >> 4)];
 800080e:	4a12      	ldr	r2, [pc, #72]	@ (8000858 <SystemCoreClockUpdate+0x5c>)
 8000810:	4813      	ldr	r0, [pc, #76]	@ (8000860 <SystemCoreClockUpdate+0x64>)
 8000812:	6892      	ldr	r2, [r2, #8]
  /* HCLK frequency */
  SystemCoreClock >>= tmp;
 8000814:	4913      	ldr	r1, [pc, #76]	@ (8000864 <SystemCoreClockUpdate+0x68>)
  tmp = AHBPrescTable[((RCC->CFGR & RCC_CFGR_HPRE) >> 4)];
 8000816:	f3c2 1203 	ubfx	r2, r2, #4, #4
 800081a:	5c82      	ldrb	r2, [r0, r2]
  SystemCoreClock >>= tmp;
 800081c:	40d3      	lsrs	r3, r2
 800081e:	600b      	str	r3, [r1, #0]
}
 8000820:	4770      	bx	lr
      pllsource = (RCC->PLLCFGR & RCC_PLLCFGR_PLLSRC) >> 22;
 8000822:	6853      	ldr	r3, [r2, #4]
      pllm = RCC->PLLCFGR & RCC_PLLCFGR_PLLM;
 8000824:	6851      	ldr	r1, [r2, #4]
      if (pllsource != 0)
 8000826:	f413 0f80 	tst.w	r3, #4194304	@ 0x400000
        pllvco = (HSE_VALUE / pllm) * ((RCC->PLLCFGR & RCC_PLLCFGR_PLLN) >> 6);
 800082a:	6853      	ldr	r3, [r2, #4]
 800082c:	bf14      	ite	ne
 800082e:	4a0e      	ldrne	r2, [pc, #56]	@ (8000868 <SystemCoreClockUpdate+0x6c>)
        pllvco = (HSI_VALUE / pllm) * ((RCC->PLLCFGR & RCC_PLLCFGR_PLLN) >> 6);
 8000830:	4a0a      	ldreq	r2, [pc, #40]	@ (800085c <SystemCoreClockUpdate+0x60>)
 8000832:	f3c3 1388 	ubfx	r3, r3, #6, #9
      pllm = RCC->PLLCFGR & RCC_PLLCFGR_PLLM;
 8000836:	f001 013f 	and.w	r1, r1, #63	@ 0x3f
        pllvco = (HSI_VALUE / pllm) * ((RCC->PLLCFGR & RCC_PLLCFGR_PLLN) >> 6);
 800083a:	fbb2 f2f1 	udiv	r2, r2, r1
 800083e:	fb02 f303 	mul.w	r3, r2, r3
      pllp = (((RCC->PLLCFGR & RCC_PLLCFGR_PLLP) >>16) + 1 ) *2;
 8000842:	4a05      	ldr	r2, [pc, #20]	@ (8000858 <SystemCoreClockUpdate+0x5c>)
 8000844:	6852      	ldr	r2, [r2, #4]
 8000846:	f3c2 4201 	ubfx	r2, r2, #16, #2
 800084a:	3201      	adds	r2, #1
 800084c:	0052      	lsls	r2, r2, #1
      SystemCoreClock = pllvco/pllp;
 800084e:	fbb3 f3f2 	udiv	r3, r3, r2
      break;
 8000852:	e7dc      	b.n	800080e <SystemCoreClockUpdate+0x12>
  switch (tmp)
 8000854:	4b04      	ldr	r3, [pc, #16]	@ (8000868 <SystemCoreClockUpdate+0x6c>)
 8000856:	e7da      	b.n	800080e <SystemCoreClockUpdate+0x12>
 8000858:	40023800 			@ <UNDEFINED> instruction: 40023800
 800085c:	00f42400 			@ <UNDEFINED> instruction: 00f42400
 8000860:	08005350 			@ <UNDEFINED> instruction: 08005350
 8000864:	20000000 			@ <UNDEFINED> instruction: 20000000
 8000868:	017d7840 			@ <UNDEFINED> instruction: 017d7840
 800086c:	00000000 			@ <UNDEFINED> instruction: 00000000

08000870 <SysTick_Run>:
#include "device_driver.h"

void SysTick_Run(unsigned int msec)
{
 8000870:	b538      	push	{r3, r4, r5, lr}
	SysTick->CTRL = (0<<2)+(0<<1)+(0<<0);
 8000872:	f04f 24e0 	mov.w	r4, #3758153728	@ 0xe000e000
 8000876:	2500      	movs	r5, #0
 8000878:	6125      	str	r5, [r4, #16]
	SysTick->LOAD = (unsigned int)((HCLK/(8.*1000.))*msec+0.5);
 800087a:	f000 fddf 	bl	800143c <__aeabi_ui2d>
 800087e:	a30b      	add	r3, pc, #44	@ (adr r3, 80008ac <SysTick_Run+0x3c>)
 8000880:	e9d3 2300 	ldrd	r2, r3, [r3]
 8000884:	f000 fe54 	bl	8001530 <__aeabi_dmul>
 8000888:	4b07      	ldr	r3, [pc, #28]	@ (80008a8 <SysTick_Run+0x38>)
 800088a:	2200      	movs	r2, #0
 800088c:	f000 fc9a 	bl	80011c4 <__adddf3>
 8000890:	f001 f926 	bl	8001ae0 <__aeabi_d2uiz>
 8000894:	6160      	str	r0, [r4, #20]
	SysTick->VAL = 0;
 8000896:	61a5      	str	r5, [r4, #24]
	Macro_Set_Bit(SysTick->CTRL, 0);
 8000898:	6923      	ldr	r3, [r4, #16]
 800089a:	f043 0301 	orr.w	r3, r3, #1
 800089e:	6123      	str	r3, [r4, #16]
}
 80008a0:	bd38      	pop	{r3, r4, r5, pc}
 80008a2:	bf00      	nop
 80008a4:	f3af 8000 	nop.w
 80008a8:	3fe00000 			@ <UNDEFINED> instruction: 3fe00000
 80008ac:	00000000 			@ <UNDEFINED> instruction: 00000000
 80008b0:	40c77000 			@ <UNDEFINED> instruction: 40c77000

080008b4 <SysTick_Check_Timeout>:

int SysTick_Check_Timeout(void)
{
	return ((SysTick->CTRL >> 16) & 0x1);
 80008b4:	f04f 23e0 	mov.w	r3, #3758153728	@ 0xe000e000
 80008b8:	6918      	ldr	r0, [r3, #16]
}
 80008ba:	f3c0 4000 	ubfx	r0, r0, #16, #1
 80008be:	4770      	bx	lr

080008c0 <SysTick_Get_Time>:

unsigned int SysTick_Get_Time(void)
{
	return SysTick->VAL;
 80008c0:	f04f 23e0 	mov.w	r3, #3758153728	@ 0xe000e000
 80008c4:	6998      	ldr	r0, [r3, #24]
}
 80008c6:	4770      	bx	lr

080008c8 <SysTick_Get_Load_Time>:

unsigned int SysTick_Get_Load_Time(void)
{
	return SysTick->LOAD;
 80008c8:	f04f 23e0 	mov.w	r3, #3758153728	@ 0xe000e000
 80008cc:	6958      	ldr	r0, [r3, #20]
}
 80008ce:	4770      	bx	lr

080008d0 <SysTick_Stop>:

void SysTick_Stop(void)
{
	SysTick->CTRL = 0<<0;
 80008d0:	f04f 23e0 	mov.w	r3, #3758153728	@ 0xe000e000
 80008d4:	2200      	movs	r2, #0
 80008d6:	611a      	str	r2, [r3, #16]
}
 80008d8:	4770      	bx	lr
 80008da:	bf00      	nop
 80008dc:	0000      	movs	r0, r0
	...

080008e0 <TIM2_Stopwatch_Start>:
#define TIME4_PLS_OF_1ms  	(1000/TIM4_TICK)
#define TIM4_MAX	  		(0xffffu)

void TIM2_Stopwatch_Start(void)
{
	Macro_Set_Bit(RCC->APB1ENR, 0);
 80008e0:	490c      	ldr	r1, [pc, #48]	@ (8000914 <TIM2_Stopwatch_Start+0x34>)
 80008e2:	6c0a      	ldr	r2, [r1, #64]	@ 0x40

	TIM2->CR1 = (1<<4)|(1<<3);
 80008e4:	f04f 4380 	mov.w	r3, #1073741824	@ 0x40000000
	Macro_Set_Bit(RCC->APB1ENR, 0);
 80008e8:	f042 0201 	orr.w	r2, r2, #1
 80008ec:	640a      	str	r2, [r1, #64]	@ 0x40
	TIM2->CR1 = (1<<4)|(1<<3);
 80008ee:	f04f 0c18 	mov.w	ip, #24
	TIM2->PSC = (unsigned int)(TIMXCLK/50000.0 + 0.5)-1;
	TIM2->ARR = TIM2_MAX;
 80008f2:	f64f 72ff 	movw	r2, #65535	@ 0xffff
	TIM2->PSC = (unsigned int)(TIMXCLK/50000.0 + 0.5)-1;
 80008f6:	f240 707f 	movw	r0, #1919	@ 0x77f
	TIM2->CR1 = (1<<4)|(1<<3);
 80008fa:	f8c3 c000 	str.w	ip, [r3]
	TIM2->PSC = (unsigned int)(TIMXCLK/50000.0 + 0.5)-1;
 80008fe:	6298      	str	r0, [r3, #40]	@ 0x28
	TIM2->ARR = TIM2_MAX;
 8000900:	62da      	str	r2, [r3, #44]	@ 0x2c

	Macro_Set_Bit(TIM2->EGR,0);
 8000902:	695a      	ldr	r2, [r3, #20]
 8000904:	f042 0201 	orr.w	r2, r2, #1
 8000908:	615a      	str	r2, [r3, #20]
	Macro_Set_Bit(TIM2->CR1, 0);
 800090a:	681a      	ldr	r2, [r3, #0]
 800090c:	f042 0201 	orr.w	r2, r2, #1
 8000910:	601a      	str	r2, [r3, #0]
}
 8000912:	4770      	bx	lr
 8000914:	40023800 			@ <UNDEFINED> instruction: 40023800

08000918 <TIM2_Stopwatch_Stop>:

unsigned int TIM2_Stopwatch_Stop(void)
{
	unsigned int time;

	Macro_Clear_Bit(TIM2->CR1, 0);
 8000918:	f04f 4380 	mov.w	r3, #1073741824	@ 0x40000000
	time = (TIM2_MAX - TIM2->CNT) * TIM2_TICK;
 800091c:	4905      	ldr	r1, [pc, #20]	@ (8000934 <TIM2_Stopwatch_Stop+0x1c>)
	Macro_Clear_Bit(TIM2->CR1, 0);
 800091e:	681a      	ldr	r2, [r3, #0]
 8000920:	f022 0201 	bic.w	r2, r2, #1
 8000924:	601a      	str	r2, [r3, #0]
	time = (TIM2_MAX - TIM2->CNT) * TIM2_TICK;
 8000926:	6a5b      	ldr	r3, [r3, #36]	@ 0x24
 8000928:	f06f 0013 	mvn.w	r0, #19
	return time;
}
 800092c:	fb00 1003 	mla	r0, r0, r3, r1
 8000930:	4770      	bx	lr
 8000932:	bf00      	nop
 8000934:	0013ffec 			@ <UNDEFINED> instruction: 0013ffec

08000938 <TIM2_Delay>:
void TIM2_Delay(int time)
{
	int i;
	unsigned int t = TIME2_PLS_OF_1ms * time;

	Macro_Set_Bit(RCC->APB1ENR, 0);
 8000938:	4928      	ldr	r1, [pc, #160]	@ (80009dc <TIM2_Delay+0xa4>)
 800093a:	6c0b      	ldr	r3, [r1, #64]	@ 0x40

	TIM2->PSC = (unsigned int)(TIMXCLK/(double)TIM2_FREQ + 0.5)-1;
 800093c:	f04f 4280 	mov.w	r2, #1073741824	@ 0x40000000
	Macro_Set_Bit(RCC->APB1ENR, 0);
 8000940:	f043 0301 	orr.w	r3, r3, #1
 8000944:	640b      	str	r3, [r1, #64]	@ 0x40
	TIM2->PSC = (unsigned int)(TIMXCLK/(double)TIM2_FREQ + 0.5)-1;
 8000946:	f240 7c7f 	movw	ip, #1919	@ 0x77f
	TIM2->CR1 = (1<<4)|(1<<3);
 800094a:	2118      	movs	r1, #24
	TIM2->ARR = 0xffff;
 800094c:	f64f 73ff 	movw	r3, #65535	@ 0xffff
	TIM2->PSC = (unsigned int)(TIMXCLK/(double)TIM2_FREQ + 0.5)-1;
 8000950:	f8c2 c028 	str.w	ip, [r2, #40]	@ 0x28
	TIM2->CR1 = (1<<4)|(1<<3);
 8000954:	6011      	str	r1, [r2, #0]
	TIM2->ARR = 0xffff;
 8000956:	62d3      	str	r3, [r2, #44]	@ 0x2c
	Macro_Set_Bit(TIM2->EGR,0);
 8000958:	6953      	ldr	r3, [r2, #20]
	unsigned int t = TIME2_PLS_OF_1ms * time;
 800095a:	2132      	movs	r1, #50	@ 0x32
 800095c:	fb01 fc00 	mul.w	ip, r1, r0

	for(i=0; i<(t/0xffffu); i++)
 8000960:	f64f 71fe 	movw	r1, #65534	@ 0xfffe
	Macro_Set_Bit(TIM2->EGR,0);
 8000964:	f043 0301 	orr.w	r3, r3, #1
	for(i=0; i<(t/0xffffu); i++)
 8000968:	458c      	cmp	ip, r1
	Macro_Set_Bit(TIM2->EGR,0);
 800096a:	6153      	str	r3, [r2, #20]
	for(i=0; i<(t/0xffffu); i++)
 800096c:	d916      	bls.n	800099c <TIM2_Delay+0x64>
 800096e:	481c      	ldr	r0, [pc, #112]	@ (80009e0 <TIM2_Delay+0xa8>)
 8000970:	fba0 300c 	umull	r3, r0, r0, ip
 8000974:	2100      	movs	r1, #0
 8000976:	0bc0      	lsrs	r0, r0, #15
	{
		Macro_Set_Bit(TIM2->EGR,0);
 8000978:	6953      	ldr	r3, [r2, #20]
 800097a:	f043 0301 	orr.w	r3, r3, #1
 800097e:	6153      	str	r3, [r2, #20]
		Macro_Clear_Bit(TIM2->SR, 0);
 8000980:	6913      	ldr	r3, [r2, #16]
 8000982:	f023 0301 	bic.w	r3, r3, #1
 8000986:	6113      	str	r3, [r2, #16]
		Macro_Set_Bit(TIM2->CR1, 0);
 8000988:	6813      	ldr	r3, [r2, #0]
 800098a:	f043 0301 	orr.w	r3, r3, #1
 800098e:	6013      	str	r3, [r2, #0]
		while(Macro_Check_Bit_Clear(TIM2->SR, 0));
 8000990:	6913      	ldr	r3, [r2, #16]
 8000992:	07db      	lsls	r3, r3, #31
 8000994:	d5fc      	bpl.n	8000990 <TIM2_Delay+0x58>
	for(i=0; i<(t/0xffffu); i++)
 8000996:	3101      	adds	r1, #1
 8000998:	4281      	cmp	r1, r0
 800099a:	d3ed      	bcc.n	8000978 <TIM2_Delay+0x40>
	}

	TIM2->ARR = t % 0xffffu;
 800099c:	4a10      	ldr	r2, [pc, #64]	@ (80009e0 <TIM2_Delay+0xa8>)
 800099e:	fba2 120c 	umull	r1, r2, r2, ip
 80009a2:	0bd2      	lsrs	r2, r2, #15
 80009a4:	f04f 4380 	mov.w	r3, #1073741824	@ 0x40000000
 80009a8:	ebc2 4202 	rsb	r2, r2, r2, lsl #16
 80009ac:	ebac 0202 	sub.w	r2, ip, r2
 80009b0:	62da      	str	r2, [r3, #44]	@ 0x2c
	Macro_Set_Bit(TIM2->EGR,0);
 80009b2:	695a      	ldr	r2, [r3, #20]
 80009b4:	f042 0201 	orr.w	r2, r2, #1
 80009b8:	615a      	str	r2, [r3, #20]
	Macro_Clear_Bit(TIM2->SR, 0);
 80009ba:	691a      	ldr	r2, [r3, #16]
 80009bc:	f022 0201 	bic.w	r2, r2, #1
 80009c0:	611a      	str	r2, [r3, #16]
	Macro_Set_Bit(TIM2->CR1, 0);
 80009c2:	681a      	ldr	r2, [r3, #0]
 80009c4:	f042 0201 	orr.w	r2, r2, #1
 80009c8:	601a      	str	r2, [r3, #0]
	while (Macro_Check_Bit_Clear(TIM2->SR, 0));
 80009ca:	691a      	ldr	r2, [r3, #16]
 80009cc:	07d2      	lsls	r2, r2, #31
 80009ce:	d5fc      	bpl.n	80009ca <TIM2_Delay+0x92>

	Macro_Clear_Bit(TIM2->CR1, 0);
 80009d0:	681a      	ldr	r2, [r3, #0]
 80009d2:	f022 0201 	bic.w	r2, r2, #1
 80009d6:	601a      	str	r2, [r3, #0]
}
 80009d8:	4770      	bx	lr
 80009da:	bf00      	nop
 80009dc:	40023800 			@ <UNDEFINED> instruction: 40023800
 80009e0:	80008001 			@ <UNDEFINED> instruction: 80008001

080009e4 <TIM4_Repeat>:

#endif

void TIM4_Repeat(int time)
{
	Macro_Set_Bit(RCC->APB1ENR, 2);
 80009e4:	490e      	ldr	r1, [pc, #56]	@ (8000a20 <TIM4_Repeat+0x3c>)

	TIM4->CR1 = (1<<4)|(0<<3);
 80009e6:	4b0f      	ldr	r3, [pc, #60]	@ (8000a24 <TIM4_Repeat+0x40>)
	Macro_Set_Bit(RCC->APB1ENR, 2);
 80009e8:	6c0a      	ldr	r2, [r1, #64]	@ 0x40
	TIM4->PSC = (unsigned int)(TIMXCLK/(double)TIM4_FREQ + 0.5)-1;
	TIM4->ARR = TIME4_PLS_OF_1ms * time - 1;
 80009ea:	f04f 0c32 	mov.w	ip, #50	@ 0x32
	Macro_Set_Bit(RCC->APB1ENR, 2);
 80009ee:	f042 0204 	orr.w	r2, r2, #4
	TIM4->ARR = TIME4_PLS_OF_1ms * time - 1;
 80009f2:	fb0c f000 	mul.w	r0, ip, r0
	Macro_Set_Bit(RCC->APB1ENR, 2);
 80009f6:	640a      	str	r2, [r1, #64]	@ 0x40
	TIM4->ARR = TIME4_PLS_OF_1ms * time - 1;
 80009f8:	3801      	subs	r0, #1
	TIM4->PSC = (unsigned int)(TIMXCLK/(double)TIM4_FREQ + 0.5)-1;
 80009fa:	f240 727f 	movw	r2, #1919	@ 0x77f
	TIM4->CR1 = (1<<4)|(0<<3);
 80009fe:	2110      	movs	r1, #16
 8000a00:	6019      	str	r1, [r3, #0]
	TIM4->PSC = (unsigned int)(TIMXCLK/(double)TIM4_FREQ + 0.5)-1;
 8000a02:	629a      	str	r2, [r3, #40]	@ 0x28
	TIM4->ARR = TIME4_PLS_OF_1ms * time - 1;
 8000a04:	62d8      	str	r0, [r3, #44]	@ 0x2c

	Macro_Set_Bit(TIM4->EGR,0);
 8000a06:	695a      	ldr	r2, [r3, #20]
 8000a08:	f042 0201 	orr.w	r2, r2, #1
 8000a0c:	615a      	str	r2, [r3, #20]
	Macro_Clear_Bit(TIM4->SR, 0);
 8000a0e:	691a      	ldr	r2, [r3, #16]
 8000a10:	f022 0201 	bic.w	r2, r2, #1
 8000a14:	611a      	str	r2, [r3, #16]
	Macro_Set_Bit(TIM4->CR1, 0);
 8000a16:	681a      	ldr	r2, [r3, #0]
 8000a18:	f042 0201 	orr.w	r2, r2, #1
 8000a1c:	601a      	str	r2, [r3, #0]
}
 8000a1e:	4770      	bx	lr
 8000a20:	40023800 			@ <UNDEFINED> instruction: 40023800
 8000a24:	40000800 			@ <UNDEFINED> instruction: 40000800

08000a28 <TIM4_Check_Timeout>:

int TIM4_Check_Timeout(void)
{
	if(Macro_Check_Bit_Set(TIM4->SR, 0))
 8000a28:	4b05      	ldr	r3, [pc, #20]	@ (8000a40 <TIM4_Check_Timeout+0x18>)
 8000a2a:	6918      	ldr	r0, [r3, #16]
 8000a2c:	f010 0001 	ands.w	r0, r0, #1
 8000a30:	d004      	beq.n	8000a3c <TIM4_Check_Timeout+0x14>
	{
		Macro_Clear_Bit(TIM4->SR, 0);
 8000a32:	691a      	ldr	r2, [r3, #16]
 8000a34:	f022 0201 	bic.w	r2, r2, #1
		return 1;
 8000a38:	2001      	movs	r0, #1
		Macro_Clear_Bit(TIM4->SR, 0);
 8000a3a:	611a      	str	r2, [r3, #16]
	}
	else
	{
		return 0;
	}
}
 8000a3c:	4770      	bx	lr
 8000a3e:	bf00      	nop
 8000a40:	40000800 			@ <UNDEFINED> instruction: 40000800

08000a44 <TIM4_Stop>:

void TIM4_Stop(void)
{
	Macro_Clear_Bit(TIM4->CR1, 0);
 8000a44:	4a02      	ldr	r2, [pc, #8]	@ (8000a50 <TIM4_Stop+0xc>)
 8000a46:	6813      	ldr	r3, [r2, #0]
 8000a48:	f023 0301 	bic.w	r3, r3, #1
 8000a4c:	6013      	str	r3, [r2, #0]
}
 8000a4e:	4770      	bx	lr
 8000a50:	40000800 			@ <UNDEFINED> instruction: 40000800

08000a54 <TIM4_Change_Value>:

void TIM4_Change_Value(int time)
{
	TIM4->ARR = TIME4_PLS_OF_1ms * time;
 8000a54:	4b02      	ldr	r3, [pc, #8]	@ (8000a60 <TIM4_Change_Value+0xc>)
 8000a56:	2232      	movs	r2, #50	@ 0x32
 8000a58:	fb02 f000 	mul.w	r0, r2, r0
 8000a5c:	62d8      	str	r0, [r3, #44]	@ 0x2c
}
 8000a5e:	4770      	bx	lr
 8000a60:	40000800 			@ <UNDEFINED> instruction: 40000800

08000a64 <TIM4_Repeat_Interrupt_Enable>:

void TIM4_Repeat_Interrupt_Enable(int en, int time)
{
	if(en)
 8000a64:	b348      	cbz	r0, 8000aba <TIM4_Repeat_Interrupt_Enable+0x56>
{
 8000a66:	b500      	push	{lr}
	{
		Macro_Set_Bit(RCC->APB1ENR, 2);
 8000a68:	481d      	ldr	r0, [pc, #116]	@ (8000ae0 <TIM4_Repeat_Interrupt_Enable+0x7c>)

		TIM4->CR1 = (1<<4)|(0<<3);
 8000a6a:	4b1e      	ldr	r3, [pc, #120]	@ (8000ae4 <TIM4_Repeat_Interrupt_Enable+0x80>)
		Macro_Set_Bit(RCC->APB1ENR, 2);
 8000a6c:	6c02      	ldr	r2, [r0, #64]	@ 0x40
		TIM4->PSC = (unsigned int)(TIMXCLK/(double)TIM4_FREQ + 0.5)-1;
		TIM4->ARR = TIME4_PLS_OF_1ms * time;
 8000a6e:	f04f 0e32 	mov.w	lr, #50	@ 0x32
		Macro_Set_Bit(RCC->APB1ENR, 2);
 8000a72:	f042 0204 	orr.w	r2, r2, #4
 8000a76:	6402      	str	r2, [r0, #64]	@ 0x40
		TIM4->ARR = TIME4_PLS_OF_1ms * time;
 8000a78:	fb0e f101 	mul.w	r1, lr, r1
		TIM4->CR1 = (1<<4)|(0<<3);
 8000a7c:	f04f 0c10 	mov.w	ip, #16
		TIM4->PSC = (unsigned int)(TIMXCLK/(double)TIM4_FREQ + 0.5)-1;
 8000a80:	f240 727f 	movw	r2, #1919	@ 0x77f
		TIM4->CR1 = (1<<4)|(0<<3);
 8000a84:	f8c3 c000 	str.w	ip, [r3]
		TIM4->PSC = (unsigned int)(TIMXCLK/(double)TIM4_FREQ + 0.5)-1;
 8000a88:	629a      	str	r2, [r3, #40]	@ 0x28
		TIM4->ARR = TIME4_PLS_OF_1ms * time;
 8000a8a:	62d9      	str	r1, [r3, #44]	@ 0x2c
		Macro_Set_Bit(TIM4->EGR,0);
 8000a8c:	695a      	ldr	r2, [r3, #20]
    NVIC->ICPR[(((uint32_t)IRQn) >> 5UL)] = (uint32_t)(1UL << (((uint32_t)IRQn) & 0x1FUL));
 8000a8e:	4916      	ldr	r1, [pc, #88]	@ (8000ae8 <TIM4_Repeat_Interrupt_Enable+0x84>)
 8000a90:	f042 0201 	orr.w	r2, r2, #1
 8000a94:	615a      	str	r2, [r3, #20]

		Macro_Clear_Bit(TIM4->SR, 0);
 8000a96:	691a      	ldr	r2, [r3, #16]
 8000a98:	f04f 4080 	mov.w	r0, #1073741824	@ 0x40000000
 8000a9c:	f022 0201 	bic.w	r2, r2, #1
 8000aa0:	611a      	str	r2, [r3, #16]
 8000aa2:	f8c1 0180 	str.w	r0, [r1, #384]	@ 0x180
		NVIC_ClearPendingIRQ(30);

		Macro_Set_Bit(TIM4->DIER, 0);
 8000aa6:	68da      	ldr	r2, [r3, #12]
 8000aa8:	f042 0201 	orr.w	r2, r2, #1
 8000aac:	60da      	str	r2, [r3, #12]
    NVIC->ISER[(((uint32_t)IRQn) >> 5UL)] = (uint32_t)(1UL << (((uint32_t)IRQn) & 0x1FUL));
 8000aae:	6008      	str	r0, [r1, #0]
		NVIC_EnableIRQ(30);

		Macro_Set_Bit(TIM4->CR1, 0);
 8000ab0:	681a      	ldr	r2, [r3, #0]
 8000ab2:	f042 0201 	orr.w	r2, r2, #1
 8000ab6:	601a      	str	r2, [r3, #0]
	{
		NVIC_DisableIRQ(30);
		Macro_Clear_Bit(TIM4->CR1, 0);
		Macro_Clear_Bit(TIM4->DIER, 0);
	}
}
 8000ab8:	bd00      	pop	{pc}
    NVIC->ICER[(((uint32_t)IRQn) >> 5UL)] = (uint32_t)(1UL << (((uint32_t)IRQn) & 0x1FUL));
 8000aba:	4b0b      	ldr	r3, [pc, #44]	@ (8000ae8 <TIM4_Repeat_Interrupt_Enable+0x84>)
 8000abc:	f04f 4280 	mov.w	r2, #1073741824	@ 0x40000000
 8000ac0:	f8c3 2080 	str.w	r2, [r3, #128]	@ 0x80
  __ASM volatile ("dsb 0xF":::"memory");
 8000ac4:	f3bf 8f4f 	dsb	sy
  __ASM volatile ("isb 0xF":::"memory");
 8000ac8:	f3bf 8f6f 	isb	sy
		Macro_Clear_Bit(TIM4->CR1, 0);
 8000acc:	4b05      	ldr	r3, [pc, #20]	@ (8000ae4 <TIM4_Repeat_Interrupt_Enable+0x80>)
 8000ace:	681a      	ldr	r2, [r3, #0]
 8000ad0:	f022 0201 	bic.w	r2, r2, #1
 8000ad4:	601a      	str	r2, [r3, #0]
		Macro_Clear_Bit(TIM4->DIER, 0);
 8000ad6:	68da      	ldr	r2, [r3, #12]
 8000ad8:	f022 0201 	bic.w	r2, r2, #1
 8000adc:	60da      	str	r2, [r3, #12]
 8000ade:	4770      	bx	lr
 8000ae0:	40023800 			@ <UNDEFINED> instruction: 40023800
 8000ae4:	40000800 			@ <UNDEFINED> instruction: 40000800
 8000ae8:	e000e100 			@ <UNDEFINED> instruction: e000e100

08000aec <TIM3_Out_Init>:
#define TIM3_TICK	  			(1000000/TIM3_FREQ)	// usec
#define TIME3_PLS_OF_1ms  		(1000/TIM3_TICK)

void TIM3_Out_Init(void)
{
	Macro_Set_Bit(RCC->AHB1ENR, 1);
 8000aec:	4b10      	ldr	r3, [pc, #64]	@ (8000b30 <TIM3_Out_Init+0x44>)
	Macro_Set_Bit(RCC->APB1ENR, 1);

	Macro_Write_Block(GPIOB->MODER, 0x3, 0x2, 0);  	// PB0 => ALT
 8000aee:	4a11      	ldr	r2, [pc, #68]	@ (8000b34 <TIM3_Out_Init+0x48>)
	Macro_Set_Bit(RCC->AHB1ENR, 1);
 8000af0:	6b18      	ldr	r0, [r3, #48]	@ 0x30
	Macro_Write_Block(GPIOB->AFR[0], 0xf, 0x2, 0); 	// PB0 => AF02

	Macro_Write_Block(TIM3->CCMR2,0xff, 0x60, 0);
 8000af2:	4911      	ldr	r1, [pc, #68]	@ (8000b38 <TIM3_Out_Init+0x4c>)
	Macro_Set_Bit(RCC->AHB1ENR, 1);
 8000af4:	f040 0002 	orr.w	r0, r0, #2
 8000af8:	6318      	str	r0, [r3, #48]	@ 0x30
	Macro_Set_Bit(RCC->APB1ENR, 1);
 8000afa:	6c18      	ldr	r0, [r3, #64]	@ 0x40
 8000afc:	f040 0002 	orr.w	r0, r0, #2
 8000b00:	6418      	str	r0, [r3, #64]	@ 0x40
	Macro_Write_Block(GPIOB->MODER, 0x3, 0x2, 0);  	// PB0 => ALT
 8000b02:	6813      	ldr	r3, [r2, #0]
 8000b04:	f023 0303 	bic.w	r3, r3, #3
 8000b08:	f043 0302 	orr.w	r3, r3, #2
 8000b0c:	6013      	str	r3, [r2, #0]
	Macro_Write_Block(GPIOB->AFR[0], 0xf, 0x2, 0); 	// PB0 => AF02
 8000b0e:	6a13      	ldr	r3, [r2, #32]
 8000b10:	f023 030f 	bic.w	r3, r3, #15
 8000b14:	f043 0302 	orr.w	r3, r3, #2
 8000b18:	6213      	str	r3, [r2, #32]
	Macro_Write_Block(TIM3->CCMR2,0xff, 0x60, 0);
 8000b1a:	69cb      	ldr	r3, [r1, #28]
 8000b1c:	f023 03ff 	bic.w	r3, r3, #255	@ 0xff
	TIM3->CCER = (0<<9)|(1<<8);
 8000b20:	f44f 7080 	mov.w	r0, #256	@ 0x100
	Macro_Write_Block(TIM3->CCMR2,0xff, 0x60, 0);
 8000b24:	f043 0360 	orr.w	r3, r3, #96	@ 0x60
 8000b28:	61cb      	str	r3, [r1, #28]
	TIM3->CCER = (0<<9)|(1<<8);
 8000b2a:	6208      	str	r0, [r1, #32]
}
 8000b2c:	4770      	bx	lr
 8000b2e:	bf00      	nop
 8000b30:	40023800 			@ <UNDEFINED> instruction: 40023800
 8000b34:	40020400 			@ <UNDEFINED> instruction: 40020400
 8000b38:	40000400 			@ <UNDEFINED> instruction: 40000400

08000b3c <TIM3_Out_Freq_Generation>:

void TIM3_Out_Freq_Generation(unsigned short freq)
{
 8000b3c:	b510      	push	{r4, lr}
	TIM3->PSC = (unsigned int)(TIMXCLK/(double)TIM3_FREQ + 0.5)-1;
 8000b3e:	4c10      	ldr	r4, [pc, #64]	@ (8000b80 <TIM3_Out_Freq_Generation+0x44>)
 8000b40:	230b      	movs	r3, #11
 8000b42:	62a3      	str	r3, [r4, #40]	@ 0x28
	TIM3->ARR = (double)TIM3_FREQ/freq-1;
 8000b44:	f000 fc8a 	bl	800145c <__aeabi_i2d>
 8000b48:	4602      	mov	r2, r0
 8000b4a:	460b      	mov	r3, r1
 8000b4c:	a10a      	add	r1, pc, #40	@ (adr r1, 8000b78 <TIM3_Out_Freq_Generation+0x3c>)
 8000b4e:	e9d1 0100 	ldrd	r0, r1, [r1]
 8000b52:	f000 fe17 	bl	8001784 <__aeabi_ddiv>
 8000b56:	4b0b      	ldr	r3, [pc, #44]	@ (8000b84 <TIM3_Out_Freq_Generation+0x48>)
 8000b58:	2200      	movs	r2, #0
 8000b5a:	f000 fb31 	bl	80011c0 <__aeabi_dsub>
 8000b5e:	f000 ffbf 	bl	8001ae0 <__aeabi_d2uiz>
 8000b62:	62e0      	str	r0, [r4, #44]	@ 0x2c
	TIM3->CCR3 = TIM3->ARR/2;
 8000b64:	6ae3      	ldr	r3, [r4, #44]	@ 0x2c
 8000b66:	085b      	lsrs	r3, r3, #1
 8000b68:	63e3      	str	r3, [r4, #60]	@ 0x3c

	Macro_Set_Bit(TIM3->EGR,0);
 8000b6a:	6963      	ldr	r3, [r4, #20]
	TIM3->CR1 = (1<<4)|(0<<3)|(0<<1)|(1<<0);
 8000b6c:	2211      	movs	r2, #17
	Macro_Set_Bit(TIM3->EGR,0);
 8000b6e:	f043 0301 	orr.w	r3, r3, #1
 8000b72:	6163      	str	r3, [r4, #20]
	TIM3->CR1 = (1<<4)|(0<<3)|(0<<1)|(1<<0);
 8000b74:	6022      	str	r2, [r4, #0]
}
 8000b76:	bd10      	pop	{r4, pc}
 8000b78:	00000000 			@ <UNDEFINED> instruction: 00000000
 8000b7c:	415e8480 			@ <UNDEFINED> instruction: 415e8480
 8000b80:	40000400 			@ <UNDEFINED> instruction: 40000400
 8000b84:	3ff00000 			@ <UNDEFINED> instruction: 3ff00000

08000b88 <TIM3_Out_Stop>:

void TIM3_Out_Stop(void)
{
	Macro_Clear_Bit(TIM3->CR1, 0);
 8000b88:	4a02      	ldr	r2, [pc, #8]	@ (8000b94 <TIM3_Out_Stop+0xc>)
 8000b8a:	6813      	ldr	r3, [r2, #0]
 8000b8c:	f023 0301 	bic.w	r3, r3, #1
 8000b90:	6013      	str	r3, [r2, #0]
 8000b92:	4770      	bx	lr
 8000b94:	40000400 			@ <UNDEFINED> instruction: 40000400

08000b98 <Uart2_Init>:
#include <string.h>
#include <stdlib.h>
#include <ctype.h>

void Uart2_Init(int baud)
{
 8000b98:	b570      	push	{r4, r5, r6, lr}
  double div;
  unsigned int mant;
  unsigned int frac;

  Macro_Set_Bit(RCC->AHB1ENR, 0);                   // PA2,3
 8000b9a:	4a35      	ldr	r2, [pc, #212]	@ (8000c70 <Uart2_Init+0xd8>)
  Macro_Set_Bit(RCC->APB1ENR, 17);                   // USART2 ON
  Macro_Write_Block(GPIOA->MODER, 0xf, 0xa, 4);     // PA2,3 => ALT
 8000b9c:	4b35      	ldr	r3, [pc, #212]	@ (8000c74 <Uart2_Init+0xdc>)
  Macro_Set_Bit(RCC->AHB1ENR, 0);                   // PA2,3
 8000b9e:	6b11      	ldr	r1, [r2, #48]	@ 0x30
 8000ba0:	f041 0101 	orr.w	r1, r1, #1
{
 8000ba4:	b082      	sub	sp, #8
  Macro_Set_Bit(RCC->AHB1ENR, 0);                   // PA2,3
 8000ba6:	6311      	str	r1, [r2, #48]	@ 0x30
  Macro_Set_Bit(RCC->APB1ENR, 17);                   // USART2 ON
 8000ba8:	6c11      	ldr	r1, [r2, #64]	@ 0x40
 8000baa:	f441 3100 	orr.w	r1, r1, #131072	@ 0x20000
 8000bae:	6411      	str	r1, [r2, #64]	@ 0x40
  Macro_Write_Block(GPIOA->MODER, 0xf, 0xa, 4);     // PA2,3 => ALT
 8000bb0:	681a      	ldr	r2, [r3, #0]
 8000bb2:	f022 02f0 	bic.w	r2, r2, #240	@ 0xf0
 8000bb6:	f042 02a0 	orr.w	r2, r2, #160	@ 0xa0
 8000bba:	601a      	str	r2, [r3, #0]
  Macro_Write_Block(GPIOA->AFR[0], 0xff, 0x77, 8);  // PA2,3 => AF07
 8000bbc:	6a1a      	ldr	r2, [r3, #32]
 8000bbe:	f422 427f 	bic.w	r2, r2, #65280	@ 0xff00
 8000bc2:	f442 42ee 	orr.w	r2, r2, #30464	@ 0x7700
 8000bc6:	621a      	str	r2, [r3, #32]
  Macro_Write_Block(GPIOA->PUPDR, 0xf, 0x5, 4);     // PA2,3 => Pull-Up  
 8000bc8:	68da      	ldr	r2, [r3, #12]
 8000bca:	f022 02f0 	bic.w	r2, r2, #240	@ 0xf0
 8000bce:	f042 0250 	orr.w	r2, r2, #80	@ 0x50
 8000bd2:	60da      	str	r2, [r3, #12]

  volatile unsigned int t = GPIOA->LCKR & 0x7FFF;
 8000bd4:	69da      	ldr	r2, [r3, #28]
 8000bd6:	f3c2 020e 	ubfx	r2, r2, #0, #15
 8000bda:	9201      	str	r2, [sp, #4]
  GPIOA->LCKR = (0x1<<16)|t|(0x3<<2);                // Lock PA2, 3 Configuration
 8000bdc:	9a01      	ldr	r2, [sp, #4]
 8000bde:	f442 3280 	orr.w	r2, r2, #65536	@ 0x10000
 8000be2:	f042 020c 	orr.w	r2, r2, #12
 8000be6:	61da      	str	r2, [r3, #28]
  GPIOA->LCKR = (0x0<<16)|t|(0x3<<2);
 8000be8:	9a01      	ldr	r2, [sp, #4]
 8000bea:	f042 020c 	orr.w	r2, r2, #12
 8000bee:	61da      	str	r2, [r3, #28]
  GPIOA->LCKR = (0x1<<16)|t|(0x3<<2);
 8000bf0:	9a01      	ldr	r2, [sp, #4]
 8000bf2:	f442 3280 	orr.w	r2, r2, #65536	@ 0x10000
 8000bf6:	f042 020c 	orr.w	r2, r2, #12
 8000bfa:	61da      	str	r2, [r3, #28]
  t = GPIOA->LCKR;
 8000bfc:	69db      	ldr	r3, [r3, #28]
 8000bfe:	9301      	str	r3, [sp, #4]

  div = PCLK1/(16. * baud);
 8000c00:	f000 fc2c 	bl	800145c <__aeabi_i2d>
 8000c04:	4b1c      	ldr	r3, [pc, #112]	@ (8000c78 <Uart2_Init+0xe0>)
 8000c06:	2200      	movs	r2, #0
 8000c08:	f000 fc92 	bl	8001530 <__aeabi_dmul>
 8000c0c:	4602      	mov	r2, r0
 8000c0e:	460b      	mov	r3, r1
 8000c10:	a115      	add	r1, pc, #84	@ (adr r1, 8000c68 <Uart2_Init+0xd0>)
 8000c12:	e9d1 0100 	ldrd	r0, r1, [r1]
 8000c16:	f000 fdb5 	bl	8001784 <__aeabi_ddiv>
 8000c1a:	460d      	mov	r5, r1
 8000c1c:	4604      	mov	r4, r0
  mant = (int)div;
 8000c1e:	f000 ff37 	bl	8001a90 <__aeabi_d2iz>
 8000c22:	4606      	mov	r6, r0
  frac = (int)((div - mant) * 16. + 0.5);
 8000c24:	f000 fc0a 	bl	800143c <__aeabi_ui2d>
 8000c28:	4602      	mov	r2, r0
 8000c2a:	460b      	mov	r3, r1
 8000c2c:	4620      	mov	r0, r4
 8000c2e:	4629      	mov	r1, r5
 8000c30:	f000 fac6 	bl	80011c0 <__aeabi_dsub>
 8000c34:	4b10      	ldr	r3, [pc, #64]	@ (8000c78 <Uart2_Init+0xe0>)
 8000c36:	2200      	movs	r2, #0
 8000c38:	f000 fc7a 	bl	8001530 <__aeabi_dmul>
 8000c3c:	4b0f      	ldr	r3, [pc, #60]	@ (8000c7c <Uart2_Init+0xe4>)
 8000c3e:	2200      	movs	r2, #0
 8000c40:	f000 fac0 	bl	80011c4 <__adddf3>
 8000c44:	f000 ff24 	bl	8001a90 <__aeabi_d2iz>
  mant += frac >> 4;
  frac &= 0xf;

  USART2->BRR = (mant<<4)|(frac<<0);
 8000c48:	4b0d      	ldr	r3, [pc, #52]	@ (8000c80 <Uart2_Init+0xe8>)
  mant += frac >> 4;
 8000c4a:	eb06 1210 	add.w	r2, r6, r0, lsr #4
  frac &= 0xf;
 8000c4e:	f000 000f 	and.w	r0, r0, #15
  USART2->CR1 = (1<<13)|(0<<12)|(0<<10)|(1<<3)|(1<<2);
  USART2->CR2 = 0<<12;
 8000c52:	2100      	movs	r1, #0
  USART2->BRR = (mant<<4)|(frac<<0);
 8000c54:	ea40 1002 	orr.w	r0, r0, r2, lsl #4
  USART2->CR1 = (1<<13)|(0<<12)|(0<<10)|(1<<3)|(1<<2);
 8000c58:	f242 020c 	movw	r2, #8204	@ 0x200c
  USART2->BRR = (mant<<4)|(frac<<0);
 8000c5c:	6098      	str	r0, [r3, #8]
  USART2->CR1 = (1<<13)|(0<<12)|(0<<10)|(1<<3)|(1<<2);
 8000c5e:	60da      	str	r2, [r3, #12]
  USART2->CR2 = 0<<12;
 8000c60:	6119      	str	r1, [r3, #16]
  USART2->CR3 = 0;
 8000c62:	6159      	str	r1, [r3, #20]
}
 8000c64:	b002      	add	sp, #8
 8000c66:	bd70      	pop	{r4, r5, r6, pc}
 8000c68:	00000000 			@ <UNDEFINED> instruction: 00000000
 8000c6c:	4186e360 			@ <UNDEFINED> instruction: 4186e360
 8000c70:	40023800 			@ <UNDEFINED> instruction: 40023800
 8000c74:	40020000 			@ <UNDEFINED> instruction: 40020000
 8000c78:	40300000 			@ <UNDEFINED> instruction: 40300000
 8000c7c:	3fe00000 			@ <UNDEFINED> instruction: 3fe00000
 8000c80:	40004400 			@ <UNDEFINED> instruction: 40004400

08000c84 <Uart2_Send_Byte>:

void Uart2_Send_Byte(char data)
{
  if(data == '\n')
 8000c84:	280a      	cmp	r0, #10
 8000c86:	d005      	beq.n	8000c94 <Uart2_Send_Byte+0x10>
  {
    while(!Macro_Check_Bit_Set(USART2->SR, 7));
    USART2->DR = 0x0d;
  }

  while(!Macro_Check_Bit_Set(USART2->SR, 7));
 8000c88:	4a06      	ldr	r2, [pc, #24]	@ (8000ca4 <Uart2_Send_Byte+0x20>)
 8000c8a:	6813      	ldr	r3, [r2, #0]
 8000c8c:	061b      	lsls	r3, r3, #24
 8000c8e:	d5fc      	bpl.n	8000c8a <Uart2_Send_Byte+0x6>
  USART2->DR = data;
 8000c90:	6050      	str	r0, [r2, #4]
}
 8000c92:	4770      	bx	lr
    while(!Macro_Check_Bit_Set(USART2->SR, 7));
 8000c94:	4a03      	ldr	r2, [pc, #12]	@ (8000ca4 <Uart2_Send_Byte+0x20>)
 8000c96:	6813      	ldr	r3, [r2, #0]
 8000c98:	0619      	lsls	r1, r3, #24
 8000c9a:	d5fc      	bpl.n	8000c96 <Uart2_Send_Byte+0x12>
    USART2->DR = 0x0d;
 8000c9c:	230d      	movs	r3, #13
 8000c9e:	6053      	str	r3, [r2, #4]
 8000ca0:	e7f2      	b.n	8000c88 <Uart2_Send_Byte+0x4>
 8000ca2:	bf00      	nop
 8000ca4:	40004400 			@ <UNDEFINED> instruction: 40004400

08000ca8 <Uart2_RX_Interrupt_Enable>:

void Uart2_RX_Interrupt_Enable(int en)
{
  if(en)
 8000ca8:	b150      	cbz	r0, 8000cc0 <Uart2_RX_Interrupt_Enable+0x18>
  {
    Macro_Set_Bit(USART2->CR1, 5);
 8000caa:	480c      	ldr	r0, [pc, #48]	@ (8000cdc <Uart2_RX_Interrupt_Enable+0x34>)
    NVIC->ICPR[(((uint32_t)IRQn) >> 5UL)] = (uint32_t)(1UL << (((uint32_t)IRQn) & 0x1FUL));
 8000cac:	4a0c      	ldr	r2, [pc, #48]	@ (8000ce0 <Uart2_RX_Interrupt_Enable+0x38>)
 8000cae:	68c3      	ldr	r3, [r0, #12]
 8000cb0:	2140      	movs	r1, #64	@ 0x40
 8000cb2:	f043 0320 	orr.w	r3, r3, #32
 8000cb6:	60c3      	str	r3, [r0, #12]
 8000cb8:	f8c2 1184 	str.w	r1, [r2, #388]	@ 0x184
    NVIC->ISER[(((uint32_t)IRQn) >> 5UL)] = (uint32_t)(1UL << (((uint32_t)IRQn) & 0x1FUL));
 8000cbc:	6051      	str	r1, [r2, #4]
    __COMPILER_BARRIER();
 8000cbe:	4770      	bx	lr
    NVIC_ClearPendingIRQ(38);
    NVIC_EnableIRQ(38);
  }
  else
  {
    Macro_Clear_Bit(USART2->CR1, 5);
 8000cc0:	4a06      	ldr	r2, [pc, #24]	@ (8000cdc <Uart2_RX_Interrupt_Enable+0x34>)
    NVIC->ICER[(((uint32_t)IRQn) >> 5UL)] = (uint32_t)(1UL << (((uint32_t)IRQn) & 0x1FUL));
 8000cc2:	4907      	ldr	r1, [pc, #28]	@ (8000ce0 <Uart2_RX_Interrupt_Enable+0x38>)
 8000cc4:	68d3      	ldr	r3, [r2, #12]
 8000cc6:	2040      	movs	r0, #64	@ 0x40
 8000cc8:	f023 0320 	bic.w	r3, r3, #32
 8000ccc:	60d3      	str	r3, [r2, #12]
 8000cce:	f8c1 0084 	str.w	r0, [r1, #132]	@ 0x84
  __ASM volatile ("dsb 0xF":::"memory");
 8000cd2:	f3bf 8f4f 	dsb	sy
  __ASM volatile ("isb 0xF":::"memory");
 8000cd6:	f3bf 8f6f 	isb	sy
    NVIC_DisableIRQ(38);
  }
}
 8000cda:	4770      	bx	lr
 8000cdc:	40004400 			@ <UNDEFINED> instruction: 40004400
 8000ce0:	e000e100 			@ <UNDEFINED> instruction: e000e100

08000ce4 <Uart1_Init>:

void Uart1_Init(int baud)
{
 8000ce4:	b570      	push	{r4, r5, r6, lr}
  double div;
  unsigned int mant;
  unsigned int frac;

  Macro_Set_Bit(RCC->AHB1ENR, 0);                   // PA9,10
 8000ce6:	4a34      	ldr	r2, [pc, #208]	@ (8000db8 <Uart1_Init+0xd4>)
  Macro_Set_Bit(RCC->APB2ENR, 4);                   // USART1 ON
  Macro_Write_Block(GPIOA->MODER, 0xf, 0xa, 18);    // PA9,10 => ALT
 8000ce8:	4b34      	ldr	r3, [pc, #208]	@ (8000dbc <Uart1_Init+0xd8>)
  Macro_Set_Bit(RCC->AHB1ENR, 0);                   // PA9,10
 8000cea:	6b11      	ldr	r1, [r2, #48]	@ 0x30
 8000cec:	f041 0101 	orr.w	r1, r1, #1
{
 8000cf0:	b082      	sub	sp, #8
  Macro_Set_Bit(RCC->AHB1ENR, 0);                   // PA9,10
 8000cf2:	6311      	str	r1, [r2, #48]	@ 0x30
  Macro_Set_Bit(RCC->APB2ENR, 4);                   // USART1 ON
 8000cf4:	6c51      	ldr	r1, [r2, #68]	@ 0x44
 8000cf6:	f041 0110 	orr.w	r1, r1, #16
 8000cfa:	6451      	str	r1, [r2, #68]	@ 0x44
  Macro_Write_Block(GPIOA->MODER, 0xf, 0xa, 18);    // PA9,10 => ALT
 8000cfc:	681a      	ldr	r2, [r3, #0]
 8000cfe:	f422 1270 	bic.w	r2, r2, #3932160	@ 0x3c0000
 8000d02:	f442 1220 	orr.w	r2, r2, #2621440	@ 0x280000
 8000d06:	601a      	str	r2, [r3, #0]
  Macro_Write_Block(GPIOA->AFR[1], 0xff, 0x77, 4);  // PA9,10 => AF07
 8000d08:	6a5a      	ldr	r2, [r3, #36]	@ 0x24
 8000d0a:	f422 627f 	bic.w	r2, r2, #4080	@ 0xff0
 8000d0e:	f442 62ee 	orr.w	r2, r2, #1904	@ 0x770
 8000d12:	625a      	str	r2, [r3, #36]	@ 0x24
  Macro_Write_Block(GPIOA->PUPDR, 0xf, 0x5, 18);    // PA9,10 => Pull-Up
 8000d14:	68da      	ldr	r2, [r3, #12]
 8000d16:	f422 1270 	bic.w	r2, r2, #3932160	@ 0x3c0000
 8000d1a:	f442 12a0 	orr.w	r2, r2, #1310720	@ 0x140000
 8000d1e:	60da      	str	r2, [r3, #12]
  
  volatile unsigned int t = GPIOA->LCKR & 0x7FFF;
 8000d20:	69da      	ldr	r2, [r3, #28]
 8000d22:	f3c2 020e 	ubfx	r2, r2, #0, #15
 8000d26:	9201      	str	r2, [sp, #4]
  GPIOA->LCKR = (0x1<<16)|t|(0x3<<9);               // Lock PA9, 10 Configuration
 8000d28:	9a01      	ldr	r2, [sp, #4]
 8000d2a:	f442 3283 	orr.w	r2, r2, #67072	@ 0x10600
 8000d2e:	61da      	str	r2, [r3, #28]
  GPIOA->LCKR = (0x0<<16)|t|(0x3<<9);
 8000d30:	9a01      	ldr	r2, [sp, #4]
 8000d32:	f442 62c0 	orr.w	r2, r2, #1536	@ 0x600
 8000d36:	61da      	str	r2, [r3, #28]
  GPIOA->LCKR = (0x1<<16)|t|(0x3<<9);
 8000d38:	9a01      	ldr	r2, [sp, #4]
 8000d3a:	f442 3283 	orr.w	r2, r2, #67072	@ 0x10600
 8000d3e:	61da      	str	r2, [r3, #28]
  t = GPIOA->LCKR;
 8000d40:	69db      	ldr	r3, [r3, #28]
 8000d42:	9301      	str	r3, [sp, #4]

  div = PCLK2 / (16. * baud);
 8000d44:	f000 fb8a 	bl	800145c <__aeabi_i2d>
 8000d48:	4b1d      	ldr	r3, [pc, #116]	@ (8000dc0 <Uart1_Init+0xdc>)
 8000d4a:	2200      	movs	r2, #0
 8000d4c:	f000 fbf0 	bl	8001530 <__aeabi_dmul>
 8000d50:	4602      	mov	r2, r0
 8000d52:	460b      	mov	r3, r1
 8000d54:	a116      	add	r1, pc, #88	@ (adr r1, 8000db0 <Uart1_Init+0xcc>)
 8000d56:	e9d1 0100 	ldrd	r0, r1, [r1]
 8000d5a:	f000 fd13 	bl	8001784 <__aeabi_ddiv>
 8000d5e:	460d      	mov	r5, r1
 8000d60:	4604      	mov	r4, r0
  mant = (int)div;
 8000d62:	f000 fe95 	bl	8001a90 <__aeabi_d2iz>
 8000d66:	4606      	mov	r6, r0
  frac = (int)((div - mant) * 16 + 0.5);
 8000d68:	f000 fb68 	bl	800143c <__aeabi_ui2d>
 8000d6c:	4602      	mov	r2, r0
 8000d6e:	460b      	mov	r3, r1
 8000d70:	4620      	mov	r0, r4
 8000d72:	4629      	mov	r1, r5
 8000d74:	f000 fa24 	bl	80011c0 <__aeabi_dsub>
 8000d78:	4b11      	ldr	r3, [pc, #68]	@ (8000dc0 <Uart1_Init+0xdc>)
 8000d7a:	2200      	movs	r2, #0
 8000d7c:	f000 fbd8 	bl	8001530 <__aeabi_dmul>
 8000d80:	4b10      	ldr	r3, [pc, #64]	@ (8000dc4 <Uart1_Init+0xe0>)
 8000d82:	2200      	movs	r2, #0
 8000d84:	f000 fa1e 	bl	80011c4 <__adddf3>
 8000d88:	f000 fe82 	bl	8001a90 <__aeabi_d2iz>
  mant += frac >> 4;
  frac &= 0xf;
  USART1->BRR = (mant<<4)|(frac<<0);
 8000d8c:	4b0e      	ldr	r3, [pc, #56]	@ (8000dc8 <Uart1_Init+0xe4>)
  mant += frac >> 4;
 8000d8e:	eb06 1210 	add.w	r2, r6, r0, lsr #4
  frac &= 0xf;
 8000d92:	f000 000f 	and.w	r0, r0, #15

  USART1->CR1 = (1<<13)|(0<<12)|(0<<10)|(1<<3)|(1<<2);
  USART1->CR2 = 0 << 12;
 8000d96:	2100      	movs	r1, #0
  USART1->BRR = (mant<<4)|(frac<<0);
 8000d98:	ea40 1002 	orr.w	r0, r0, r2, lsl #4
  USART1->CR1 = (1<<13)|(0<<12)|(0<<10)|(1<<3)|(1<<2);
 8000d9c:	f242 020c 	movw	r2, #8204	@ 0x200c
  USART1->BRR = (mant<<4)|(frac<<0);
 8000da0:	6098      	str	r0, [r3, #8]
  USART1->CR1 = (1<<13)|(0<<12)|(0<<10)|(1<<3)|(1<<2);
 8000da2:	60da      	str	r2, [r3, #12]
  USART1->CR2 = 0 << 12;
 8000da4:	6119      	str	r1, [r3, #16]
  USART1->CR3 = 0;
 8000da6:	6159      	str	r1, [r3, #20]
}
 8000da8:	b002      	add	sp, #8
 8000daa:	bd70      	pop	{r4, r5, r6, pc}
 8000dac:	f3af 8000 	nop.w
 8000db0:	00000000 			@ <UNDEFINED> instruction: 00000000
 8000db4:	4196e360 			@ <UNDEFINED> instruction: 4196e360
 8000db8:	40023800 			@ <UNDEFINED> instruction: 40023800
 8000dbc:	40020000 			@ <UNDEFINED> instruction: 40020000
 8000dc0:	40300000 			@ <UNDEFINED> instruction: 40300000
 8000dc4:	3fe00000 			@ <UNDEFINED> instruction: 3fe00000
 8000dc8:	40011000 			@ <UNDEFINED> instruction: 40011000

08000dcc <Uart1_Send_Byte>:

void Uart1_Send_Byte(char data)
{
  if(data == '\n')
 8000dcc:	280a      	cmp	r0, #10
 8000dce:	d005      	beq.n	8000ddc <Uart1_Send_Byte+0x10>
  {
    while(!Macro_Check_Bit_Set(USART1->SR, 7));
    USART1->DR = 0x0d;
  }

  while(!Macro_Check_Bit_Set(USART1->SR, 7));
 8000dd0:	4a06      	ldr	r2, [pc, #24]	@ (8000dec <Uart1_Send_Byte+0x20>)
 8000dd2:	6813      	ldr	r3, [r2, #0]
 8000dd4:	061b      	lsls	r3, r3, #24
 8000dd6:	d5fc      	bpl.n	8000dd2 <Uart1_Send_Byte+0x6>
  USART1->DR = data;
 8000dd8:	6050      	str	r0, [r2, #4]
}
 8000dda:	4770      	bx	lr
    while(!Macro_Check_Bit_Set(USART1->SR, 7));
 8000ddc:	4a03      	ldr	r2, [pc, #12]	@ (8000dec <Uart1_Send_Byte+0x20>)
 8000dde:	6813      	ldr	r3, [r2, #0]
 8000de0:	0619      	lsls	r1, r3, #24
 8000de2:	d5fc      	bpl.n	8000dde <Uart1_Send_Byte+0x12>
    USART1->DR = 0x0d;
 8000de4:	230d      	movs	r3, #13
 8000de6:	6053      	str	r3, [r2, #4]
 8000de8:	e7f2      	b.n	8000dd0 <Uart1_Send_Byte+0x4>
 8000dea:	bf00      	nop
 8000dec:	40011000 			@ <UNDEFINED> instruction: 40011000

08000df0 <Uart1_Send_String>:

void Uart1_Send_String(char *pt)
{
  while(*pt != 0)
 8000df0:	7801      	ldrb	r1, [r0, #0]
 8000df2:	b161      	cbz	r1, 8000e0e <Uart1_Send_String+0x1e>
    while(!Macro_Check_Bit_Set(USART1->SR, 7));
 8000df4:	4a09      	ldr	r2, [pc, #36]	@ (8000e1c <Uart1_Send_String+0x2c>)
    USART1->DR = 0x0d;
 8000df6:	f04f 0c0d 	mov.w	ip, #13
  if(data == '\n')
 8000dfa:	290a      	cmp	r1, #10
 8000dfc:	d008      	beq.n	8000e10 <Uart1_Send_String+0x20>
  while(!Macro_Check_Bit_Set(USART1->SR, 7));
 8000dfe:	6813      	ldr	r3, [r2, #0]
 8000e00:	061b      	lsls	r3, r3, #24
 8000e02:	d5fc      	bpl.n	8000dfe <Uart1_Send_String+0xe>
  USART1->DR = data;
 8000e04:	6051      	str	r1, [r2, #4]
  while(*pt != 0)
 8000e06:	f810 1f01 	ldrb.w	r1, [r0, #1]!
 8000e0a:	2900      	cmp	r1, #0
 8000e0c:	d1f5      	bne.n	8000dfa <Uart1_Send_String+0xa>
  {
    Uart1_Send_Byte(*pt++);
  }
}
 8000e0e:	4770      	bx	lr
    while(!Macro_Check_Bit_Set(USART1->SR, 7));
 8000e10:	6813      	ldr	r3, [r2, #0]
 8000e12:	061b      	lsls	r3, r3, #24
 8000e14:	d5fc      	bpl.n	8000e10 <Uart1_Send_String+0x20>
    USART1->DR = 0x0d;
 8000e16:	f8c2 c004 	str.w	ip, [r2, #4]
 8000e1a:	e7f0      	b.n	8000dfe <Uart1_Send_String+0xe>
 8000e1c:	40011000 			@ <UNDEFINED> instruction: 40011000

08000e20 <Uart1_Printf>:

void Uart1_Printf(char *fmt,...)
{
 8000e20:	b40f      	push	{r0, r1, r2, r3}
 8000e22:	b510      	push	{r4, lr}
 8000e24:	b0c2      	sub	sp, #264	@ 0x108
 8000e26:	aa44      	add	r2, sp, #272	@ 0x110
	va_list ap;
	char string[256];

	va_start(ap,fmt);
	vsprintf(string,fmt,ap);
 8000e28:	a802      	add	r0, sp, #8
{
 8000e2a:	f852 1b04 	ldr.w	r1, [r2], #4
	va_start(ap,fmt);
 8000e2e:	9201      	str	r2, [sp, #4]
	vsprintf(string,fmt,ap);
 8000e30:	f001 fbbe 	bl	80025b0 <vsiprintf>
  while(*pt != 0)
 8000e34:	f89d 1008 	ldrb.w	r1, [sp, #8]
 8000e38:	b161      	cbz	r1, 8000e54 <Uart1_Printf+0x34>
    while(!Macro_Check_Bit_Set(USART1->SR, 7));
 8000e3a:	4a0b      	ldr	r2, [pc, #44]	@ (8000e68 <Uart1_Printf+0x48>)
 8000e3c:	a802      	add	r0, sp, #8
    USART1->DR = 0x0d;
 8000e3e:	240d      	movs	r4, #13
  if(data == '\n')
 8000e40:	290a      	cmp	r1, #10
 8000e42:	d00c      	beq.n	8000e5e <Uart1_Printf+0x3e>
  while(!Macro_Check_Bit_Set(USART1->SR, 7));
 8000e44:	6813      	ldr	r3, [r2, #0]
 8000e46:	061b      	lsls	r3, r3, #24
 8000e48:	d5fc      	bpl.n	8000e44 <Uart1_Printf+0x24>
  USART1->DR = data;
 8000e4a:	6051      	str	r1, [r2, #4]
  while(*pt != 0)
 8000e4c:	f810 1f01 	ldrb.w	r1, [r0, #1]!
 8000e50:	2900      	cmp	r1, #0
 8000e52:	d1f5      	bne.n	8000e40 <Uart1_Printf+0x20>
	Uart1_Send_String(string);
	va_end(ap);
}
 8000e54:	b042      	add	sp, #264	@ 0x108
 8000e56:	e8bd 4010 	ldmia.w	sp!, {r4, lr}
 8000e5a:	b004      	add	sp, #16
 8000e5c:	4770      	bx	lr
    while(!Macro_Check_Bit_Set(USART1->SR, 7));
 8000e5e:	6813      	ldr	r3, [r2, #0]
 8000e60:	061b      	lsls	r3, r3, #24
 8000e62:	d5fc      	bpl.n	8000e5e <Uart1_Printf+0x3e>
    USART1->DR = 0x0d;
 8000e64:	6054      	str	r4, [r2, #4]
 8000e66:	e7ed      	b.n	8000e44 <Uart1_Printf+0x24>
 8000e68:	40011000 			@ <UNDEFINED> instruction: 40011000

08000e6c <Uart1_Get_Pressed>:

char Uart1_Get_Pressed(void)
{
	if(Macro_Check_Bit_Set(USART1->SR, 5))
 8000e6c:	4b03      	ldr	r3, [pc, #12]	@ (8000e7c <Uart1_Get_Pressed+0x10>)
 8000e6e:	6818      	ldr	r0, [r3, #0]
 8000e70:	f010 0020 	ands.w	r0, r0, #32
	{
		return (char)USART1->DR;
 8000e74:	bf1c      	itt	ne
 8000e76:	6858      	ldrne	r0, [r3, #4]
 8000e78:	b2c0      	uxtbne	r0, r0

	else
	{
		return (char)0;
	}
}
 8000e7a:	4770      	bx	lr
 8000e7c:	40011000 			@ <UNDEFINED> instruction: 40011000

08000e80 <Uart1_Get_Char>:

char Uart1_Get_Char(void)
{
	while(!Macro_Check_Bit_Set(USART1->SR, 5));
 8000e80:	4a03      	ldr	r2, [pc, #12]	@ (8000e90 <Uart1_Get_Char+0x10>)
 8000e82:	6813      	ldr	r3, [r2, #0]
 8000e84:	069b      	lsls	r3, r3, #26
 8000e86:	d5fc      	bpl.n	8000e82 <Uart1_Get_Char+0x2>
	return (char)USART1->DR;
 8000e88:	6850      	ldr	r0, [r2, #4]
}
 8000e8a:	b2c0      	uxtb	r0, r0
 8000e8c:	4770      	bx	lr
 8000e8e:	bf00      	nop
 8000e90:	40011000 			@ <UNDEFINED> instruction: 40011000
	...

08000ea0 <memchr>:
 8000ea0:	f001 01ff 	and.w	r1, r1, #255	@ 0xff
 8000ea4:	2a10      	cmp	r2, #16
 8000ea6:	db2b      	blt.n	8000f00 <memchr+0x60>
 8000ea8:	f010 0f07 	tst.w	r0, #7
 8000eac:	d008      	beq.n	8000ec0 <memchr+0x20>
 8000eae:	f810 3b01 	ldrb.w	r3, [r0], #1
 8000eb2:	3a01      	subs	r2, #1
 8000eb4:	428b      	cmp	r3, r1
 8000eb6:	d02d      	beq.n	8000f14 <memchr+0x74>
 8000eb8:	f010 0f07 	tst.w	r0, #7
 8000ebc:	b342      	cbz	r2, 8000f10 <memchr+0x70>
 8000ebe:	d1f6      	bne.n	8000eae <memchr+0xe>
 8000ec0:	b4f0      	push	{r4, r5, r6, r7}
 8000ec2:	ea41 2101 	orr.w	r1, r1, r1, lsl #8
 8000ec6:	ea41 4101 	orr.w	r1, r1, r1, lsl #16
 8000eca:	f022 0407 	bic.w	r4, r2, #7
 8000ece:	f07f 0700 	mvns.w	r7, #0
 8000ed2:	2300      	movs	r3, #0
 8000ed4:	e8f0 5602 	ldrd	r5, r6, [r0], #8
 8000ed8:	3c08      	subs	r4, #8
 8000eda:	ea85 0501 	eor.w	r5, r5, r1
 8000ede:	ea86 0601 	eor.w	r6, r6, r1
 8000ee2:	fa85 f547 	uadd8	r5, r5, r7
 8000ee6:	faa3 f587 	sel	r5, r3, r7
 8000eea:	fa86 f647 	uadd8	r6, r6, r7
 8000eee:	faa5 f687 	sel	r6, r5, r7
 8000ef2:	b98e      	cbnz	r6, 8000f18 <memchr+0x78>
 8000ef4:	d1ee      	bne.n	8000ed4 <memchr+0x34>
 8000ef6:	bcf0      	pop	{r4, r5, r6, r7}
 8000ef8:	f001 01ff 	and.w	r1, r1, #255	@ 0xff
 8000efc:	f002 0207 	and.w	r2, r2, #7
 8000f00:	b132      	cbz	r2, 8000f10 <memchr+0x70>
 8000f02:	f810 3b01 	ldrb.w	r3, [r0], #1
 8000f06:	3a01      	subs	r2, #1
 8000f08:	ea83 0301 	eor.w	r3, r3, r1
 8000f0c:	b113      	cbz	r3, 8000f14 <memchr+0x74>
 8000f0e:	d1f8      	bne.n	8000f02 <memchr+0x62>
 8000f10:	2000      	movs	r0, #0
 8000f12:	4770      	bx	lr
 8000f14:	3801      	subs	r0, #1
 8000f16:	4770      	bx	lr
 8000f18:	2d00      	cmp	r5, #0
 8000f1a:	bf06      	itte	eq
 8000f1c:	4635      	moveq	r5, r6
 8000f1e:	3803      	subeq	r0, #3
 8000f20:	3807      	subne	r0, #7
 8000f22:	f015 0f01 	tst.w	r5, #1
 8000f26:	d107      	bne.n	8000f38 <memchr+0x98>
 8000f28:	3001      	adds	r0, #1
 8000f2a:	f415 7f80 	tst.w	r5, #256	@ 0x100
 8000f2e:	bf02      	ittt	eq
 8000f30:	3001      	addeq	r0, #1
 8000f32:	f415 3fc0 	tsteq.w	r5, #98304	@ 0x18000
 8000f36:	3001      	addeq	r0, #1
 8000f38:	bcf0      	pop	{r4, r5, r6, r7}
 8000f3a:	3801      	subs	r0, #1
 8000f3c:	4770      	bx	lr
 8000f3e:	bf00      	nop

08000f40 <strlen>:
 8000f40:	4603      	mov	r3, r0
 8000f42:	f813 2b01 	ldrb.w	r2, [r3], #1
 8000f46:	2a00      	cmp	r2, #0
 8000f48:	d1fb      	bne.n	8000f42 <strlen+0x2>
 8000f4a:	1a18      	subs	r0, r3, r0
 8000f4c:	3801      	subs	r0, #1
 8000f4e:	4770      	bx	lr

08000f50 <strcmp>:
 8000f50:	f810 2b01 	ldrb.w	r2, [r0], #1
 8000f54:	f811 3b01 	ldrb.w	r3, [r1], #1
 8000f58:	2a01      	cmp	r2, #1
 8000f5a:	bf28      	it	cs
 8000f5c:	429a      	cmpcs	r2, r3
 8000f5e:	d0f7      	beq.n	8000f50 <strcmp>
 8000f60:	1ad0      	subs	r0, r2, r3
 8000f62:	4770      	bx	lr
 8000f64:	b570      	push	{r4, r5, r6, lr}
 8000f66:	f04f 0cff 	mov.w	ip, #255	@ 0xff
 8000f6a:	f44c 6ce0 	orr.w	ip, ip, #1792	@ 0x700
 8000f6e:	ea1c 5411 	ands.w	r4, ip, r1, lsr #20
 8000f72:	bf1d      	ittte	ne
 8000f74:	ea1c 5513 	andsne.w	r5, ip, r3, lsr #20
 8000f78:	ea94 0f0c 	teqne	r4, ip
 8000f7c:	ea95 0f0c 	teqne	r5, ip
 8000f80:	f000 f8de 	bleq	8001140 <strcmp+0x1f0>
 8000f84:	442c      	add	r4, r5
 8000f86:	ea81 0603 	eor.w	r6, r1, r3
 8000f8a:	ea21 514c 	bic.w	r1, r1, ip, lsl #21
 8000f8e:	ea23 534c 	bic.w	r3, r3, ip, lsl #21
 8000f92:	ea50 3501 	orrs.w	r5, r0, r1, lsl #12
 8000f96:	bf18      	it	ne
 8000f98:	ea52 3503 	orrsne.w	r5, r2, r3, lsl #12
 8000f9c:	f441 1180 	orr.w	r1, r1, #1048576	@ 0x100000
 8000fa0:	f443 1380 	orr.w	r3, r3, #1048576	@ 0x100000
 8000fa4:	d038      	beq.n	8001018 <strcmp+0xc8>
 8000fa6:	fba0 ce02 	umull	ip, lr, r0, r2
 8000faa:	f04f 0500 	mov.w	r5, #0
 8000fae:	fbe1 e502 	umlal	lr, r5, r1, r2
 8000fb2:	f006 4200 	and.w	r2, r6, #2147483648	@ 0x80000000
 8000fb6:	fbe0 e503 	umlal	lr, r5, r0, r3
 8000fba:	f04f 0600 	mov.w	r6, #0
 8000fbe:	fbe1 5603 	umlal	r5, r6, r1, r3
 8000fc2:	f09c 0f00 	teq	ip, #0
 8000fc6:	bf18      	it	ne
 8000fc8:	f04e 0e01 	orrne.w	lr, lr, #1
 8000fcc:	f1a4 04ff 	sub.w	r4, r4, #255	@ 0xff
 8000fd0:	f5b6 7f00 	cmp.w	r6, #512	@ 0x200
 8000fd4:	f564 7440 	sbc.w	r4, r4, #768	@ 0x300
 8000fd8:	d204      	bcs.n	8000fe4 <strcmp+0x94>
 8000fda:	ea5f 0e4e 	movs.w	lr, lr, lsl #1
 8000fde:	416d      	adcs	r5, r5
 8000fe0:	eb46 0606 	adc.w	r6, r6, r6
 8000fe4:	ea42 21c6 	orr.w	r1, r2, r6, lsl #11
 8000fe8:	ea41 5155 	orr.w	r1, r1, r5, lsr #21
 8000fec:	ea4f 20c5 	mov.w	r0, r5, lsl #11
 8000ff0:	ea40 505e 	orr.w	r0, r0, lr, lsr #21
 8000ff4:	ea4f 2ece 	mov.w	lr, lr, lsl #11
 8000ff8:	f1b4 0cfd 	subs.w	ip, r4, #253	@ 0xfd
 8000ffc:	bf88      	it	hi
 8000ffe:	f5bc 6fe0 	cmphi.w	ip, #1792	@ 0x700
 8001002:	d81e      	bhi.n	8001042 <strcmp+0xf2>
 8001004:	f1be 4f00 	cmp.w	lr, #2147483648	@ 0x80000000
 8001008:	bf08      	it	eq
 800100a:	ea5f 0e50 	movseq.w	lr, r0, lsr #1
 800100e:	f150 0000 	adcs.w	r0, r0, #0
 8001012:	eb41 5104 	adc.w	r1, r1, r4, lsl #20
 8001016:	bd70      	pop	{r4, r5, r6, pc}
 8001018:	f006 4600 	and.w	r6, r6, #2147483648	@ 0x80000000
 800101c:	ea46 0101 	orr.w	r1, r6, r1
 8001020:	ea40 0002 	orr.w	r0, r0, r2
 8001024:	ea81 0103 	eor.w	r1, r1, r3
 8001028:	ebb4 045c 	subs.w	r4, r4, ip, lsr #1
 800102c:	bfc2      	ittt	gt
 800102e:	ebd4 050c 	rsbsgt	r5, r4, ip
 8001032:	ea41 5104 	orrgt.w	r1, r1, r4, lsl #20
 8001036:	bd70      	popgt	{r4, r5, r6, pc}
 8001038:	f441 1180 	orr.w	r1, r1, #1048576	@ 0x100000
 800103c:	f04f 0e00 	mov.w	lr, #0
 8001040:	3c01      	subs	r4, #1
 8001042:	f300 80ab 	bgt.w	800119c <strcmp+0x24c>
 8001046:	f114 0f36 	cmn.w	r4, #54	@ 0x36
 800104a:	bfde      	ittt	le
 800104c:	2000      	movle	r0, #0
 800104e:	f001 4100 	andle.w	r1, r1, #2147483648	@ 0x80000000
 8001052:	bd70      	pople	{r4, r5, r6, pc}
 8001054:	f1c4 0400 	rsb	r4, r4, #0
 8001058:	3c20      	subs	r4, #32
 800105a:	da35      	bge.n	80010c8 <strcmp+0x178>
 800105c:	340c      	adds	r4, #12
 800105e:	dc1b      	bgt.n	8001098 <strcmp+0x148>
 8001060:	f104 0414 	add.w	r4, r4, #20
 8001064:	f1c4 0520 	rsb	r5, r4, #32
 8001068:	fa00 f305 	lsl.w	r3, r0, r5
 800106c:	fa20 f004 	lsr.w	r0, r0, r4
 8001070:	fa01 f205 	lsl.w	r2, r1, r5
 8001074:	ea40 0002 	orr.w	r0, r0, r2
 8001078:	f001 4200 	and.w	r2, r1, #2147483648	@ 0x80000000
 800107c:	f021 4100 	bic.w	r1, r1, #2147483648	@ 0x80000000
 8001080:	eb10 70d3 	adds.w	r0, r0, r3, lsr #31
 8001084:	fa21 f604 	lsr.w	r6, r1, r4
 8001088:	eb42 0106 	adc.w	r1, r2, r6
 800108c:	ea5e 0e43 	orrs.w	lr, lr, r3, lsl #1
 8001090:	bf08      	it	eq
 8001092:	ea20 70d3 	biceq.w	r0, r0, r3, lsr #31
 8001096:	bd70      	pop	{r4, r5, r6, pc}
 8001098:	f1c4 040c 	rsb	r4, r4, #12
 800109c:	f1c4 0520 	rsb	r5, r4, #32
 80010a0:	fa00 f304 	lsl.w	r3, r0, r4
 80010a4:	fa20 f005 	lsr.w	r0, r0, r5
 80010a8:	fa01 f204 	lsl.w	r2, r1, r4
 80010ac:	ea40 0002 	orr.w	r0, r0, r2
 80010b0:	f001 4100 	and.w	r1, r1, #2147483648	@ 0x80000000
 80010b4:	eb10 70d3 	adds.w	r0, r0, r3, lsr #31
 80010b8:	f141 0100 	adc.w	r1, r1, #0
 80010bc:	ea5e 0e43 	orrs.w	lr, lr, r3, lsl #1
 80010c0:	bf08      	it	eq
 80010c2:	ea20 70d3 	biceq.w	r0, r0, r3, lsr #31
 80010c6:	bd70      	pop	{r4, r5, r6, pc}
 80010c8:	f1c4 0520 	rsb	r5, r4, #32
 80010cc:	fa00 f205 	lsl.w	r2, r0, r5
 80010d0:	ea4e 0e02 	orr.w	lr, lr, r2
 80010d4:	fa20 f304 	lsr.w	r3, r0, r4
 80010d8:	fa01 f205 	lsl.w	r2, r1, r5
 80010dc:	ea43 0302 	orr.w	r3, r3, r2
 80010e0:	fa21 f004 	lsr.w	r0, r1, r4
 80010e4:	f001 4100 	and.w	r1, r1, #2147483648	@ 0x80000000
 80010e8:	fa21 f204 	lsr.w	r2, r1, r4
 80010ec:	ea20 0002 	bic.w	r0, r0, r2
 80010f0:	eb00 70d3 	add.w	r0, r0, r3, lsr #31
 80010f4:	ea5e 0e43 	orrs.w	lr, lr, r3, lsl #1
 80010f8:	bf08      	it	eq
 80010fa:	ea20 70d3 	biceq.w	r0, r0, r3, lsr #31
 80010fe:	bd70      	pop	{r4, r5, r6, pc}
 8001100:	f094 0f00 	teq	r4, #0
 8001104:	d10f      	bne.n	8001126 <strcmp+0x1d6>
 8001106:	f001 4600 	and.w	r6, r1, #2147483648	@ 0x80000000
 800110a:	0040      	lsls	r0, r0, #1
 800110c:	eb41 0101 	adc.w	r1, r1, r1
 8001110:	f411 1f80 	tst.w	r1, #1048576	@ 0x100000
 8001114:	bf08      	it	eq
 8001116:	3c01      	subeq	r4, #1
 8001118:	d0f7      	beq.n	800110a <strcmp+0x1ba>
 800111a:	ea41 0106 	orr.w	r1, r1, r6
 800111e:	f095 0f00 	teq	r5, #0
 8001122:	bf18      	it	ne
 8001124:	4770      	bxne	lr
 8001126:	f003 4600 	and.w	r6, r3, #2147483648	@ 0x80000000
 800112a:	0052      	lsls	r2, r2, #1
 800112c:	eb43 0303 	adc.w	r3, r3, r3
 8001130:	f413 1f80 	tst.w	r3, #1048576	@ 0x100000
 8001134:	bf08      	it	eq
 8001136:	3d01      	subeq	r5, #1
 8001138:	d0f7      	beq.n	800112a <strcmp+0x1da>
 800113a:	ea43 0306 	orr.w	r3, r3, r6
 800113e:	4770      	bx	lr
 8001140:	ea94 0f0c 	teq	r4, ip
 8001144:	ea0c 5513 	and.w	r5, ip, r3, lsr #20
 8001148:	bf18      	it	ne
 800114a:	ea95 0f0c 	teqne	r5, ip
 800114e:	d00c      	beq.n	800116a <strcmp+0x21a>
 8001150:	ea50 0641 	orrs.w	r6, r0, r1, lsl #1
 8001154:	bf18      	it	ne
 8001156:	ea52 0643 	orrsne.w	r6, r2, r3, lsl #1
 800115a:	d1d1      	bne.n	8001100 <strcmp+0x1b0>
 800115c:	ea81 0103 	eor.w	r1, r1, r3
 8001160:	f001 4100 	and.w	r1, r1, #2147483648	@ 0x80000000
 8001164:	f04f 0000 	mov.w	r0, #0
 8001168:	bd70      	pop	{r4, r5, r6, pc}
 800116a:	ea50 0641 	orrs.w	r6, r0, r1, lsl #1
 800116e:	bf06      	itte	eq
 8001170:	4610      	moveq	r0, r2
 8001172:	4619      	moveq	r1, r3
 8001174:	ea52 0643 	orrsne.w	r6, r2, r3, lsl #1
 8001178:	d019      	beq.n	80011ae <strcmp+0x25e>
 800117a:	ea94 0f0c 	teq	r4, ip
 800117e:	d102      	bne.n	8001186 <strcmp+0x236>
 8001180:	ea50 3601 	orrs.w	r6, r0, r1, lsl #12
 8001184:	d113      	bne.n	80011ae <strcmp+0x25e>
 8001186:	ea95 0f0c 	teq	r5, ip
 800118a:	d105      	bne.n	8001198 <strcmp+0x248>
 800118c:	ea52 3603 	orrs.w	r6, r2, r3, lsl #12
 8001190:	bf1c      	itt	ne
 8001192:	4610      	movne	r0, r2
 8001194:	4619      	movne	r1, r3
 8001196:	d10a      	bne.n	80011ae <strcmp+0x25e>
 8001198:	ea81 0103 	eor.w	r1, r1, r3
 800119c:	f001 4100 	and.w	r1, r1, #2147483648	@ 0x80000000
 80011a0:	f041 41fe 	orr.w	r1, r1, #2130706432	@ 0x7f000000
 80011a4:	f441 0170 	orr.w	r1, r1, #15728640	@ 0xf00000
 80011a8:	f04f 0000 	mov.w	r0, #0
 80011ac:	bd70      	pop	{r4, r5, r6, pc}
 80011ae:	f041 41fe 	orr.w	r1, r1, #2130706432	@ 0x7f000000
 80011b2:	f441 0178 	orr.w	r1, r1, #16252928	@ 0xf80000
 80011b6:	bd70      	pop	{r4, r5, r6, pc}

080011b8 <__aeabi_drsub>:
 80011b8:	f081 4100 	eor.w	r1, r1, #2147483648	@ 0x80000000
 80011bc:	e002      	b.n	80011c4 <__adddf3>
 80011be:	bf00      	nop

080011c0 <__aeabi_dsub>:
 80011c0:	f083 4300 	eor.w	r3, r3, #2147483648	@ 0x80000000

080011c4 <__adddf3>:
 80011c4:	b530      	push	{r4, r5, lr}
 80011c6:	ea4f 0441 	mov.w	r4, r1, lsl #1
 80011ca:	ea4f 0543 	mov.w	r5, r3, lsl #1
 80011ce:	ea94 0f05 	teq	r4, r5
 80011d2:	bf08      	it	eq
 80011d4:	ea90 0f02 	teqeq	r0, r2
 80011d8:	bf1f      	itttt	ne
 80011da:	ea54 0c00 	orrsne.w	ip, r4, r0
 80011de:	ea55 0c02 	orrsne.w	ip, r5, r2
 80011e2:	ea7f 5c64 	mvnsne.w	ip, r4, asr #21
 80011e6:	ea7f 5c65 	mvnsne.w	ip, r5, asr #21
 80011ea:	f000 80e2 	beq.w	80013b2 <__adddf3+0x1ee>
 80011ee:	ea4f 5454 	mov.w	r4, r4, lsr #21
 80011f2:	ebd4 5555 	rsbs	r5, r4, r5, lsr #21
 80011f6:	bfb8      	it	lt
 80011f8:	426d      	neglt	r5, r5
 80011fa:	dd0c      	ble.n	8001216 <__adddf3+0x52>
 80011fc:	442c      	add	r4, r5
 80011fe:	ea80 0202 	eor.w	r2, r0, r2
 8001202:	ea81 0303 	eor.w	r3, r1, r3
 8001206:	ea82 0000 	eor.w	r0, r2, r0
 800120a:	ea83 0101 	eor.w	r1, r3, r1
 800120e:	ea80 0202 	eor.w	r2, r0, r2
 8001212:	ea81 0303 	eor.w	r3, r1, r3
 8001216:	2d36      	cmp	r5, #54	@ 0x36
 8001218:	bf88      	it	hi
 800121a:	bd30      	pophi	{r4, r5, pc}
 800121c:	f011 4f00 	tst.w	r1, #2147483648	@ 0x80000000
 8001220:	ea4f 3101 	mov.w	r1, r1, lsl #12
 8001224:	f44f 1c80 	mov.w	ip, #1048576	@ 0x100000
 8001228:	ea4c 3111 	orr.w	r1, ip, r1, lsr #12
 800122c:	d002      	beq.n	8001234 <__adddf3+0x70>
 800122e:	4240      	negs	r0, r0
 8001230:	eb61 0141 	sbc.w	r1, r1, r1, lsl #1
 8001234:	f013 4f00 	tst.w	r3, #2147483648	@ 0x80000000
 8001238:	ea4f 3303 	mov.w	r3, r3, lsl #12
 800123c:	ea4c 3313 	orr.w	r3, ip, r3, lsr #12
 8001240:	d002      	beq.n	8001248 <__adddf3+0x84>
 8001242:	4252      	negs	r2, r2
 8001244:	eb63 0343 	sbc.w	r3, r3, r3, lsl #1
 8001248:	ea94 0f05 	teq	r4, r5
 800124c:	f000 80a7 	beq.w	800139e <__adddf3+0x1da>
 8001250:	f1a4 0401 	sub.w	r4, r4, #1
 8001254:	f1d5 0e20 	rsbs	lr, r5, #32
 8001258:	db0d      	blt.n	8001276 <__adddf3+0xb2>
 800125a:	fa02 fc0e 	lsl.w	ip, r2, lr
 800125e:	fa22 f205 	lsr.w	r2, r2, r5
 8001262:	1880      	adds	r0, r0, r2
 8001264:	f141 0100 	adc.w	r1, r1, #0
 8001268:	fa03 f20e 	lsl.w	r2, r3, lr
 800126c:	1880      	adds	r0, r0, r2
 800126e:	fa43 f305 	asr.w	r3, r3, r5
 8001272:	4159      	adcs	r1, r3
 8001274:	e00e      	b.n	8001294 <__adddf3+0xd0>
 8001276:	f1a5 0520 	sub.w	r5, r5, #32
 800127a:	f10e 0e20 	add.w	lr, lr, #32
 800127e:	2a01      	cmp	r2, #1
 8001280:	fa03 fc0e 	lsl.w	ip, r3, lr
 8001284:	bf28      	it	cs
 8001286:	f04c 0c02 	orrcs.w	ip, ip, #2
 800128a:	fa43 f305 	asr.w	r3, r3, r5
 800128e:	18c0      	adds	r0, r0, r3
 8001290:	eb51 71e3 	adcs.w	r1, r1, r3, asr #31
 8001294:	f001 4500 	and.w	r5, r1, #2147483648	@ 0x80000000
 8001298:	d507      	bpl.n	80012aa <__adddf3+0xe6>
 800129a:	f04f 0e00 	mov.w	lr, #0
 800129e:	f1dc 0c00 	rsbs	ip, ip, #0
 80012a2:	eb7e 0000 	sbcs.w	r0, lr, r0
 80012a6:	eb6e 0101 	sbc.w	r1, lr, r1
 80012aa:	f5b1 1f80 	cmp.w	r1, #1048576	@ 0x100000
 80012ae:	d31b      	bcc.n	80012e8 <__adddf3+0x124>
 80012b0:	f5b1 1f00 	cmp.w	r1, #2097152	@ 0x200000
 80012b4:	d30c      	bcc.n	80012d0 <__adddf3+0x10c>
 80012b6:	0849      	lsrs	r1, r1, #1
 80012b8:	ea5f 0030 	movs.w	r0, r0, rrx
 80012bc:	ea4f 0c3c 	mov.w	ip, ip, rrx
 80012c0:	f104 0401 	add.w	r4, r4, #1
 80012c4:	ea4f 5244 	mov.w	r2, r4, lsl #21
 80012c8:	f512 0f80 	cmn.w	r2, #4194304	@ 0x400000
 80012cc:	f080 809a 	bcs.w	8001404 <__adddf3+0x240>
 80012d0:	f1bc 4f00 	cmp.w	ip, #2147483648	@ 0x80000000
 80012d4:	bf08      	it	eq
 80012d6:	ea5f 0c50 	movseq.w	ip, r0, lsr #1
 80012da:	f150 0000 	adcs.w	r0, r0, #0
 80012de:	eb41 5104 	adc.w	r1, r1, r4, lsl #20
 80012e2:	ea41 0105 	orr.w	r1, r1, r5
 80012e6:	bd30      	pop	{r4, r5, pc}
 80012e8:	ea5f 0c4c 	movs.w	ip, ip, lsl #1
 80012ec:	4140      	adcs	r0, r0
 80012ee:	eb41 0101 	adc.w	r1, r1, r1
 80012f2:	3c01      	subs	r4, #1
 80012f4:	bf28      	it	cs
 80012f6:	f5b1 1f80 	cmpcs.w	r1, #1048576	@ 0x100000
 80012fa:	d2e9      	bcs.n	80012d0 <__adddf3+0x10c>
 80012fc:	f091 0f00 	teq	r1, #0
 8001300:	bf04      	itt	eq
 8001302:	4601      	moveq	r1, r0
 8001304:	2000      	moveq	r0, #0
 8001306:	fab1 f381 	clz	r3, r1
 800130a:	bf08      	it	eq
 800130c:	3320      	addeq	r3, #32
 800130e:	f1a3 030b 	sub.w	r3, r3, #11
 8001312:	f1b3 0220 	subs.w	r2, r3, #32
 8001316:	da0c      	bge.n	8001332 <__adddf3+0x16e>
 8001318:	320c      	adds	r2, #12
 800131a:	dd08      	ble.n	800132e <__adddf3+0x16a>
 800131c:	f102 0c14 	add.w	ip, r2, #20
 8001320:	f1c2 020c 	rsb	r2, r2, #12
 8001324:	fa01 f00c 	lsl.w	r0, r1, ip
 8001328:	fa21 f102 	lsr.w	r1, r1, r2
 800132c:	e00c      	b.n	8001348 <__adddf3+0x184>
 800132e:	f102 0214 	add.w	r2, r2, #20
 8001332:	bfd8      	it	le
 8001334:	f1c2 0c20 	rsble	ip, r2, #32
 8001338:	fa01 f102 	lsl.w	r1, r1, r2
 800133c:	fa20 fc0c 	lsr.w	ip, r0, ip
 8001340:	bfdc      	itt	le
 8001342:	ea41 010c 	orrle.w	r1, r1, ip
 8001346:	4090      	lslle	r0, r2
 8001348:	1ae4      	subs	r4, r4, r3
 800134a:	bfa2      	ittt	ge
 800134c:	eb01 5104 	addge.w	r1, r1, r4, lsl #20
 8001350:	4329      	orrge	r1, r5
 8001352:	bd30      	popge	{r4, r5, pc}
 8001354:	ea6f 0404 	mvn.w	r4, r4
 8001358:	3c1f      	subs	r4, #31
 800135a:	da1c      	bge.n	8001396 <__adddf3+0x1d2>
 800135c:	340c      	adds	r4, #12
 800135e:	dc0e      	bgt.n	800137e <__adddf3+0x1ba>
 8001360:	f104 0414 	add.w	r4, r4, #20
 8001364:	f1c4 0220 	rsb	r2, r4, #32
 8001368:	fa20 f004 	lsr.w	r0, r0, r4
 800136c:	fa01 f302 	lsl.w	r3, r1, r2
 8001370:	ea40 0003 	orr.w	r0, r0, r3
 8001374:	fa21 f304 	lsr.w	r3, r1, r4
 8001378:	ea45 0103 	orr.w	r1, r5, r3
 800137c:	bd30      	pop	{r4, r5, pc}
 800137e:	f1c4 040c 	rsb	r4, r4, #12
 8001382:	f1c4 0220 	rsb	r2, r4, #32
 8001386:	fa20 f002 	lsr.w	r0, r0, r2
 800138a:	fa01 f304 	lsl.w	r3, r1, r4
 800138e:	ea40 0003 	orr.w	r0, r0, r3
 8001392:	4629      	mov	r1, r5
 8001394:	bd30      	pop	{r4, r5, pc}
 8001396:	fa21 f004 	lsr.w	r0, r1, r4
 800139a:	4629      	mov	r1, r5
 800139c:	bd30      	pop	{r4, r5, pc}
 800139e:	f094 0f00 	teq	r4, #0
 80013a2:	f483 1380 	eor.w	r3, r3, #1048576	@ 0x100000
 80013a6:	bf06      	itte	eq
 80013a8:	f481 1180 	eoreq.w	r1, r1, #1048576	@ 0x100000
 80013ac:	3401      	addeq	r4, #1
 80013ae:	3d01      	subne	r5, #1
 80013b0:	e74e      	b.n	8001250 <__adddf3+0x8c>
 80013b2:	ea7f 5c64 	mvns.w	ip, r4, asr #21
 80013b6:	bf18      	it	ne
 80013b8:	ea7f 5c65 	mvnsne.w	ip, r5, asr #21
 80013bc:	d029      	beq.n	8001412 <__adddf3+0x24e>
 80013be:	ea94 0f05 	teq	r4, r5
 80013c2:	bf08      	it	eq
 80013c4:	ea90 0f02 	teqeq	r0, r2
 80013c8:	d005      	beq.n	80013d6 <__adddf3+0x212>
 80013ca:	ea54 0c00 	orrs.w	ip, r4, r0
 80013ce:	bf04      	itt	eq
 80013d0:	4619      	moveq	r1, r3
 80013d2:	4610      	moveq	r0, r2
 80013d4:	bd30      	pop	{r4, r5, pc}
 80013d6:	ea91 0f03 	teq	r1, r3
 80013da:	bf1e      	ittt	ne
 80013dc:	2100      	movne	r1, #0
 80013de:	2000      	movne	r0, #0
 80013e0:	bd30      	popne	{r4, r5, pc}
 80013e2:	ea5f 5c54 	movs.w	ip, r4, lsr #21
 80013e6:	d105      	bne.n	80013f4 <__adddf3+0x230>
 80013e8:	0040      	lsls	r0, r0, #1
 80013ea:	4149      	adcs	r1, r1
 80013ec:	bf28      	it	cs
 80013ee:	f041 4100 	orrcs.w	r1, r1, #2147483648	@ 0x80000000
 80013f2:	bd30      	pop	{r4, r5, pc}
 80013f4:	f514 0480 	adds.w	r4, r4, #4194304	@ 0x400000
 80013f8:	bf3c      	itt	cc
 80013fa:	f501 1180 	addcc.w	r1, r1, #1048576	@ 0x100000
 80013fe:	bd30      	popcc	{r4, r5, pc}
 8001400:	f001 4500 	and.w	r5, r1, #2147483648	@ 0x80000000
 8001404:	f045 41fe 	orr.w	r1, r5, #2130706432	@ 0x7f000000
 8001408:	f441 0170 	orr.w	r1, r1, #15728640	@ 0xf00000
 800140c:	f04f 0000 	mov.w	r0, #0
 8001410:	bd30      	pop	{r4, r5, pc}
 8001412:	ea7f 5c64 	mvns.w	ip, r4, asr #21
 8001416:	bf1a      	itte	ne
 8001418:	4619      	movne	r1, r3
 800141a:	4610      	movne	r0, r2
 800141c:	ea7f 5c65 	mvnseq.w	ip, r5, asr #21
 8001420:	bf1c      	itt	ne
 8001422:	460b      	movne	r3, r1
 8001424:	4602      	movne	r2, r0
 8001426:	ea50 3401 	orrs.w	r4, r0, r1, lsl #12
 800142a:	bf06      	itte	eq
 800142c:	ea52 3503 	orrseq.w	r5, r2, r3, lsl #12
 8001430:	ea91 0f03 	teqeq	r1, r3
 8001434:	f441 2100 	orrne.w	r1, r1, #524288	@ 0x80000
 8001438:	bd30      	pop	{r4, r5, pc}
 800143a:	bf00      	nop

0800143c <__aeabi_ui2d>:
 800143c:	f090 0f00 	teq	r0, #0
 8001440:	bf04      	itt	eq
 8001442:	2100      	moveq	r1, #0
 8001444:	4770      	bxeq	lr
 8001446:	b530      	push	{r4, r5, lr}
 8001448:	f44f 6480 	mov.w	r4, #1024	@ 0x400
 800144c:	f104 0432 	add.w	r4, r4, #50	@ 0x32
 8001450:	f04f 0500 	mov.w	r5, #0
 8001454:	f04f 0100 	mov.w	r1, #0
 8001458:	e750      	b.n	80012fc <__adddf3+0x138>
 800145a:	bf00      	nop

0800145c <__aeabi_i2d>:
 800145c:	f090 0f00 	teq	r0, #0
 8001460:	bf04      	itt	eq
 8001462:	2100      	moveq	r1, #0
 8001464:	4770      	bxeq	lr
 8001466:	b530      	push	{r4, r5, lr}
 8001468:	f44f 6480 	mov.w	r4, #1024	@ 0x400
 800146c:	f104 0432 	add.w	r4, r4, #50	@ 0x32
 8001470:	f010 4500 	ands.w	r5, r0, #2147483648	@ 0x80000000
 8001474:	bf48      	it	mi
 8001476:	4240      	negmi	r0, r0
 8001478:	f04f 0100 	mov.w	r1, #0
 800147c:	e73e      	b.n	80012fc <__adddf3+0x138>
 800147e:	bf00      	nop

08001480 <__aeabi_f2d>:
 8001480:	0042      	lsls	r2, r0, #1
 8001482:	ea4f 01e2 	mov.w	r1, r2, asr #3
 8001486:	ea4f 0131 	mov.w	r1, r1, rrx
 800148a:	ea4f 7002 	mov.w	r0, r2, lsl #28
 800148e:	bf1f      	itttt	ne
 8001490:	f012 437f 	andsne.w	r3, r2, #4278190080	@ 0xff000000
 8001494:	f093 4f7f 	teqne	r3, #4278190080	@ 0xff000000
 8001498:	f081 5160 	eorne.w	r1, r1, #939524096	@ 0x38000000
 800149c:	4770      	bxne	lr
 800149e:	f032 427f 	bics.w	r2, r2, #4278190080	@ 0xff000000
 80014a2:	bf08      	it	eq
 80014a4:	4770      	bxeq	lr
 80014a6:	f093 4f7f 	teq	r3, #4278190080	@ 0xff000000
 80014aa:	bf04      	itt	eq
 80014ac:	f441 2100 	orreq.w	r1, r1, #524288	@ 0x80000
 80014b0:	4770      	bxeq	lr
 80014b2:	b530      	push	{r4, r5, lr}
 80014b4:	f44f 7460 	mov.w	r4, #896	@ 0x380
 80014b8:	f001 4500 	and.w	r5, r1, #2147483648	@ 0x80000000
 80014bc:	f021 4100 	bic.w	r1, r1, #2147483648	@ 0x80000000
 80014c0:	e71c      	b.n	80012fc <__adddf3+0x138>
 80014c2:	bf00      	nop

080014c4 <__aeabi_ul2d>:
 80014c4:	ea50 0201 	orrs.w	r2, r0, r1
 80014c8:	bf08      	it	eq
 80014ca:	4770      	bxeq	lr
 80014cc:	b530      	push	{r4, r5, lr}
 80014ce:	f04f 0500 	mov.w	r5, #0
 80014d2:	e00a      	b.n	80014ea <__aeabi_l2d+0x16>

080014d4 <__aeabi_l2d>:
 80014d4:	ea50 0201 	orrs.w	r2, r0, r1
 80014d8:	bf08      	it	eq
 80014da:	4770      	bxeq	lr
 80014dc:	b530      	push	{r4, r5, lr}
 80014de:	f011 4500 	ands.w	r5, r1, #2147483648	@ 0x80000000
 80014e2:	d502      	bpl.n	80014ea <__aeabi_l2d+0x16>
 80014e4:	4240      	negs	r0, r0
 80014e6:	eb61 0141 	sbc.w	r1, r1, r1, lsl #1
 80014ea:	f44f 6480 	mov.w	r4, #1024	@ 0x400
 80014ee:	f104 0432 	add.w	r4, r4, #50	@ 0x32
 80014f2:	ea5f 5c91 	movs.w	ip, r1, lsr #22
 80014f6:	f43f aed8 	beq.w	80012aa <__adddf3+0xe6>
 80014fa:	f04f 0203 	mov.w	r2, #3
 80014fe:	ea5f 0cdc 	movs.w	ip, ip, lsr #3
 8001502:	bf18      	it	ne
 8001504:	3203      	addne	r2, #3
 8001506:	ea5f 0cdc 	movs.w	ip, ip, lsr #3
 800150a:	bf18      	it	ne
 800150c:	3203      	addne	r2, #3
 800150e:	eb02 02dc 	add.w	r2, r2, ip, lsr #3
 8001512:	f1c2 0320 	rsb	r3, r2, #32
 8001516:	fa00 fc03 	lsl.w	ip, r0, r3
 800151a:	fa20 f002 	lsr.w	r0, r0, r2
 800151e:	fa01 fe03 	lsl.w	lr, r1, r3
 8001522:	ea40 000e 	orr.w	r0, r0, lr
 8001526:	fa21 f102 	lsr.w	r1, r1, r2
 800152a:	4414      	add	r4, r2
 800152c:	e6bd      	b.n	80012aa <__adddf3+0xe6>
 800152e:	bf00      	nop

08001530 <__aeabi_dmul>:
 8001530:	b570      	push	{r4, r5, r6, lr}
 8001532:	f04f 0cff 	mov.w	ip, #255	@ 0xff
 8001536:	f44c 6ce0 	orr.w	ip, ip, #1792	@ 0x700
 800153a:	ea1c 5411 	ands.w	r4, ip, r1, lsr #20
 800153e:	bf1d      	ittte	ne
 8001540:	ea1c 5513 	andsne.w	r5, ip, r3, lsr #20
 8001544:	ea94 0f0c 	teqne	r4, ip
 8001548:	ea95 0f0c 	teqne	r5, ip
 800154c:	f000 f8de 	bleq	800170c <__aeabi_dmul+0x1dc>
 8001550:	442c      	add	r4, r5
 8001552:	ea81 0603 	eor.w	r6, r1, r3
 8001556:	ea21 514c 	bic.w	r1, r1, ip, lsl #21
 800155a:	ea23 534c 	bic.w	r3, r3, ip, lsl #21
 800155e:	ea50 3501 	orrs.w	r5, r0, r1, lsl #12
 8001562:	bf18      	it	ne
 8001564:	ea52 3503 	orrsne.w	r5, r2, r3, lsl #12
 8001568:	f441 1180 	orr.w	r1, r1, #1048576	@ 0x100000
 800156c:	f443 1380 	orr.w	r3, r3, #1048576	@ 0x100000
 8001570:	d038      	beq.n	80015e4 <__aeabi_dmul+0xb4>
 8001572:	fba0 ce02 	umull	ip, lr, r0, r2
 8001576:	f04f 0500 	mov.w	r5, #0
 800157a:	fbe1 e502 	umlal	lr, r5, r1, r2
 800157e:	f006 4200 	and.w	r2, r6, #2147483648	@ 0x80000000
 8001582:	fbe0 e503 	umlal	lr, r5, r0, r3
 8001586:	f04f 0600 	mov.w	r6, #0
 800158a:	fbe1 5603 	umlal	r5, r6, r1, r3
 800158e:	f09c 0f00 	teq	ip, #0
 8001592:	bf18      	it	ne
 8001594:	f04e 0e01 	orrne.w	lr, lr, #1
 8001598:	f1a4 04ff 	sub.w	r4, r4, #255	@ 0xff
 800159c:	f5b6 7f00 	cmp.w	r6, #512	@ 0x200
 80015a0:	f564 7440 	sbc.w	r4, r4, #768	@ 0x300
 80015a4:	d204      	bcs.n	80015b0 <__aeabi_dmul+0x80>
 80015a6:	ea5f 0e4e 	movs.w	lr, lr, lsl #1
 80015aa:	416d      	adcs	r5, r5
 80015ac:	eb46 0606 	adc.w	r6, r6, r6
 80015b0:	ea42 21c6 	orr.w	r1, r2, r6, lsl #11
 80015b4:	ea41 5155 	orr.w	r1, r1, r5, lsr #21
 80015b8:	ea4f 20c5 	mov.w	r0, r5, lsl #11
 80015bc:	ea40 505e 	orr.w	r0, r0, lr, lsr #21
 80015c0:	ea4f 2ece 	mov.w	lr, lr, lsl #11
 80015c4:	f1b4 0cfd 	subs.w	ip, r4, #253	@ 0xfd
 80015c8:	bf88      	it	hi
 80015ca:	f5bc 6fe0 	cmphi.w	ip, #1792	@ 0x700
 80015ce:	d81e      	bhi.n	800160e <__aeabi_dmul+0xde>
 80015d0:	f1be 4f00 	cmp.w	lr, #2147483648	@ 0x80000000
 80015d4:	bf08      	it	eq
 80015d6:	ea5f 0e50 	movseq.w	lr, r0, lsr #1
 80015da:	f150 0000 	adcs.w	r0, r0, #0
 80015de:	eb41 5104 	adc.w	r1, r1, r4, lsl #20
 80015e2:	bd70      	pop	{r4, r5, r6, pc}
 80015e4:	f006 4600 	and.w	r6, r6, #2147483648	@ 0x80000000
 80015e8:	ea46 0101 	orr.w	r1, r6, r1
 80015ec:	ea40 0002 	orr.w	r0, r0, r2
 80015f0:	ea81 0103 	eor.w	r1, r1, r3
 80015f4:	ebb4 045c 	subs.w	r4, r4, ip, lsr #1
 80015f8:	bfc2      	ittt	gt
 80015fa:	ebd4 050c 	rsbsgt	r5, r4, ip
 80015fe:	ea41 5104 	orrgt.w	r1, r1, r4, lsl #20
 8001602:	bd70      	popgt	{r4, r5, r6, pc}
 8001604:	f441 1180 	orr.w	r1, r1, #1048576	@ 0x100000
 8001608:	f04f 0e00 	mov.w	lr, #0
 800160c:	3c01      	subs	r4, #1
 800160e:	f300 80ab 	bgt.w	8001768 <__aeabi_dmul+0x238>
 8001612:	f114 0f36 	cmn.w	r4, #54	@ 0x36
 8001616:	bfde      	ittt	le
 8001618:	2000      	movle	r0, #0
 800161a:	f001 4100 	andle.w	r1, r1, #2147483648	@ 0x80000000
 800161e:	bd70      	pople	{r4, r5, r6, pc}
 8001620:	f1c4 0400 	rsb	r4, r4, #0
 8001624:	3c20      	subs	r4, #32
 8001626:	da35      	bge.n	8001694 <__aeabi_dmul+0x164>
 8001628:	340c      	adds	r4, #12
 800162a:	dc1b      	bgt.n	8001664 <__aeabi_dmul+0x134>
 800162c:	f104 0414 	add.w	r4, r4, #20
 8001630:	f1c4 0520 	rsb	r5, r4, #32
 8001634:	fa00 f305 	lsl.w	r3, r0, r5
 8001638:	fa20 f004 	lsr.w	r0, r0, r4
 800163c:	fa01 f205 	lsl.w	r2, r1, r5
 8001640:	ea40 0002 	orr.w	r0, r0, r2
 8001644:	f001 4200 	and.w	r2, r1, #2147483648	@ 0x80000000
 8001648:	f021 4100 	bic.w	r1, r1, #2147483648	@ 0x80000000
 800164c:	eb10 70d3 	adds.w	r0, r0, r3, lsr #31
 8001650:	fa21 f604 	lsr.w	r6, r1, r4
 8001654:	eb42 0106 	adc.w	r1, r2, r6
 8001658:	ea5e 0e43 	orrs.w	lr, lr, r3, lsl #1
 800165c:	bf08      	it	eq
 800165e:	ea20 70d3 	biceq.w	r0, r0, r3, lsr #31
 8001662:	bd70      	pop	{r4, r5, r6, pc}
 8001664:	f1c4 040c 	rsb	r4, r4, #12
 8001668:	f1c4 0520 	rsb	r5, r4, #32
 800166c:	fa00 f304 	lsl.w	r3, r0, r4
 8001670:	fa20 f005 	lsr.w	r0, r0, r5
 8001674:	fa01 f204 	lsl.w	r2, r1, r4
 8001678:	ea40 0002 	orr.w	r0, r0, r2
 800167c:	f001 4100 	and.w	r1, r1, #2147483648	@ 0x80000000
 8001680:	eb10 70d3 	adds.w	r0, r0, r3, lsr #31
 8001684:	f141 0100 	adc.w	r1, r1, #0
 8001688:	ea5e 0e43 	orrs.w	lr, lr, r3, lsl #1
 800168c:	bf08      	it	eq
 800168e:	ea20 70d3 	biceq.w	r0, r0, r3, lsr #31
 8001692:	bd70      	pop	{r4, r5, r6, pc}
 8001694:	f1c4 0520 	rsb	r5, r4, #32
 8001698:	fa00 f205 	lsl.w	r2, r0, r5
 800169c:	ea4e 0e02 	orr.w	lr, lr, r2
 80016a0:	fa20 f304 	lsr.w	r3, r0, r4
 80016a4:	fa01 f205 	lsl.w	r2, r1, r5
 80016a8:	ea43 0302 	orr.w	r3, r3, r2
 80016ac:	fa21 f004 	lsr.w	r0, r1, r4
 80016b0:	f001 4100 	and.w	r1, r1, #2147483648	@ 0x80000000
 80016b4:	fa21 f204 	lsr.w	r2, r1, r4
 80016b8:	ea20 0002 	bic.w	r0, r0, r2
 80016bc:	eb00 70d3 	add.w	r0, r0, r3, lsr #31
 80016c0:	ea5e 0e43 	orrs.w	lr, lr, r3, lsl #1
 80016c4:	bf08      	it	eq
 80016c6:	ea20 70d3 	biceq.w	r0, r0, r3, lsr #31
 80016ca:	bd70      	pop	{r4, r5, r6, pc}
 80016cc:	f094 0f00 	teq	r4, #0
 80016d0:	d10f      	bne.n	80016f2 <__aeabi_dmul+0x1c2>
 80016d2:	f001 4600 	and.w	r6, r1, #2147483648	@ 0x80000000
 80016d6:	0040      	lsls	r0, r0, #1
 80016d8:	eb41 0101 	adc.w	r1, r1, r1
 80016dc:	f411 1f80 	tst.w	r1, #1048576	@ 0x100000
 80016e0:	bf08      	it	eq
 80016e2:	3c01      	subeq	r4, #1
 80016e4:	d0f7      	beq.n	80016d6 <__aeabi_dmul+0x1a6>
 80016e6:	ea41 0106 	orr.w	r1, r1, r6
 80016ea:	f095 0f00 	teq	r5, #0
 80016ee:	bf18      	it	ne
 80016f0:	4770      	bxne	lr
 80016f2:	f003 4600 	and.w	r6, r3, #2147483648	@ 0x80000000
 80016f6:	0052      	lsls	r2, r2, #1
 80016f8:	eb43 0303 	adc.w	r3, r3, r3
 80016fc:	f413 1f80 	tst.w	r3, #1048576	@ 0x100000
 8001700:	bf08      	it	eq
 8001702:	3d01      	subeq	r5, #1
 8001704:	d0f7      	beq.n	80016f6 <__aeabi_dmul+0x1c6>
 8001706:	ea43 0306 	orr.w	r3, r3, r6
 800170a:	4770      	bx	lr
 800170c:	ea94 0f0c 	teq	r4, ip
 8001710:	ea0c 5513 	and.w	r5, ip, r3, lsr #20
 8001714:	bf18      	it	ne
 8001716:	ea95 0f0c 	teqne	r5, ip
 800171a:	d00c      	beq.n	8001736 <__aeabi_dmul+0x206>
 800171c:	ea50 0641 	orrs.w	r6, r0, r1, lsl #1
 8001720:	bf18      	it	ne
 8001722:	ea52 0643 	orrsne.w	r6, r2, r3, lsl #1
 8001726:	d1d1      	bne.n	80016cc <__aeabi_dmul+0x19c>
 8001728:	ea81 0103 	eor.w	r1, r1, r3
 800172c:	f001 4100 	and.w	r1, r1, #2147483648	@ 0x80000000
 8001730:	f04f 0000 	mov.w	r0, #0
 8001734:	bd70      	pop	{r4, r5, r6, pc}
 8001736:	ea50 0641 	orrs.w	r6, r0, r1, lsl #1
 800173a:	bf06      	itte	eq
 800173c:	4610      	moveq	r0, r2
 800173e:	4619      	moveq	r1, r3
 8001740:	ea52 0643 	orrsne.w	r6, r2, r3, lsl #1
 8001744:	d019      	beq.n	800177a <__aeabi_dmul+0x24a>
 8001746:	ea94 0f0c 	teq	r4, ip
 800174a:	d102      	bne.n	8001752 <__aeabi_dmul+0x222>
 800174c:	ea50 3601 	orrs.w	r6, r0, r1, lsl #12
 8001750:	d113      	bne.n	800177a <__aeabi_dmul+0x24a>
 8001752:	ea95 0f0c 	teq	r5, ip
 8001756:	d105      	bne.n	8001764 <__aeabi_dmul+0x234>
 8001758:	ea52 3603 	orrs.w	r6, r2, r3, lsl #12
 800175c:	bf1c      	itt	ne
 800175e:	4610      	movne	r0, r2
 8001760:	4619      	movne	r1, r3
 8001762:	d10a      	bne.n	800177a <__aeabi_dmul+0x24a>
 8001764:	ea81 0103 	eor.w	r1, r1, r3
 8001768:	f001 4100 	and.w	r1, r1, #2147483648	@ 0x80000000
 800176c:	f041 41fe 	orr.w	r1, r1, #2130706432	@ 0x7f000000
 8001770:	f441 0170 	orr.w	r1, r1, #15728640	@ 0xf00000
 8001774:	f04f 0000 	mov.w	r0, #0
 8001778:	bd70      	pop	{r4, r5, r6, pc}
 800177a:	f041 41fe 	orr.w	r1, r1, #2130706432	@ 0x7f000000
 800177e:	f441 0178 	orr.w	r1, r1, #16252928	@ 0xf80000
 8001782:	bd70      	pop	{r4, r5, r6, pc}

08001784 <__aeabi_ddiv>:
 8001784:	b570      	push	{r4, r5, r6, lr}
 8001786:	f04f 0cff 	mov.w	ip, #255	@ 0xff
 800178a:	f44c 6ce0 	orr.w	ip, ip, #1792	@ 0x700
 800178e:	ea1c 5411 	ands.w	r4, ip, r1, lsr #20
 8001792:	bf1d      	ittte	ne
 8001794:	ea1c 5513 	andsne.w	r5, ip, r3, lsr #20
 8001798:	ea94 0f0c 	teqne	r4, ip
 800179c:	ea95 0f0c 	teqne	r5, ip
 80017a0:	f000 f8a7 	bleq	80018f2 <__aeabi_ddiv+0x16e>
 80017a4:	eba4 0405 	sub.w	r4, r4, r5
 80017a8:	ea81 0e03 	eor.w	lr, r1, r3
 80017ac:	ea52 3503 	orrs.w	r5, r2, r3, lsl #12
 80017b0:	ea4f 3101 	mov.w	r1, r1, lsl #12
 80017b4:	f000 8088 	beq.w	80018c8 <__aeabi_ddiv+0x144>
 80017b8:	ea4f 3303 	mov.w	r3, r3, lsl #12
 80017bc:	f04f 5580 	mov.w	r5, #268435456	@ 0x10000000
 80017c0:	ea45 1313 	orr.w	r3, r5, r3, lsr #4
 80017c4:	ea43 6312 	orr.w	r3, r3, r2, lsr #24
 80017c8:	ea4f 2202 	mov.w	r2, r2, lsl #8
 80017cc:	ea45 1511 	orr.w	r5, r5, r1, lsr #4
 80017d0:	ea45 6510 	orr.w	r5, r5, r0, lsr #24
 80017d4:	ea4f 2600 	mov.w	r6, r0, lsl #8
 80017d8:	f00e 4100 	and.w	r1, lr, #2147483648	@ 0x80000000
 80017dc:	429d      	cmp	r5, r3
 80017de:	bf08      	it	eq
 80017e0:	4296      	cmpeq	r6, r2
 80017e2:	f144 04fd 	adc.w	r4, r4, #253	@ 0xfd
 80017e6:	f504 7440 	add.w	r4, r4, #768	@ 0x300
 80017ea:	d202      	bcs.n	80017f2 <__aeabi_ddiv+0x6e>
 80017ec:	085b      	lsrs	r3, r3, #1
 80017ee:	ea4f 0232 	mov.w	r2, r2, rrx
 80017f2:	1ab6      	subs	r6, r6, r2
 80017f4:	eb65 0503 	sbc.w	r5, r5, r3
 80017f8:	085b      	lsrs	r3, r3, #1
 80017fa:	ea4f 0232 	mov.w	r2, r2, rrx
 80017fe:	f44f 1080 	mov.w	r0, #1048576	@ 0x100000
 8001802:	f44f 2c00 	mov.w	ip, #524288	@ 0x80000
 8001806:	ebb6 0e02 	subs.w	lr, r6, r2
 800180a:	eb75 0e03 	sbcs.w	lr, r5, r3
 800180e:	bf22      	ittt	cs
 8001810:	1ab6      	subcs	r6, r6, r2
 8001812:	4675      	movcs	r5, lr
 8001814:	ea40 000c 	orrcs.w	r0, r0, ip
 8001818:	085b      	lsrs	r3, r3, #1
 800181a:	ea4f 0232 	mov.w	r2, r2, rrx
 800181e:	ebb6 0e02 	subs.w	lr, r6, r2
 8001822:	eb75 0e03 	sbcs.w	lr, r5, r3
 8001826:	bf22      	ittt	cs
 8001828:	1ab6      	subcs	r6, r6, r2
 800182a:	4675      	movcs	r5, lr
 800182c:	ea40 005c 	orrcs.w	r0, r0, ip, lsr #1
 8001830:	085b      	lsrs	r3, r3, #1
 8001832:	ea4f 0232 	mov.w	r2, r2, rrx
 8001836:	ebb6 0e02 	subs.w	lr, r6, r2
 800183a:	eb75 0e03 	sbcs.w	lr, r5, r3
 800183e:	bf22      	ittt	cs
 8001840:	1ab6      	subcs	r6, r6, r2
 8001842:	4675      	movcs	r5, lr
 8001844:	ea40 009c 	orrcs.w	r0, r0, ip, lsr #2
 8001848:	085b      	lsrs	r3, r3, #1
 800184a:	ea4f 0232 	mov.w	r2, r2, rrx
 800184e:	ebb6 0e02 	subs.w	lr, r6, r2
 8001852:	eb75 0e03 	sbcs.w	lr, r5, r3
 8001856:	bf22      	ittt	cs
 8001858:	1ab6      	subcs	r6, r6, r2
 800185a:	4675      	movcs	r5, lr
 800185c:	ea40 00dc 	orrcs.w	r0, r0, ip, lsr #3
 8001860:	ea55 0e06 	orrs.w	lr, r5, r6
 8001864:	d018      	beq.n	8001898 <__aeabi_ddiv+0x114>
 8001866:	ea4f 1505 	mov.w	r5, r5, lsl #4
 800186a:	ea45 7516 	orr.w	r5, r5, r6, lsr #28
 800186e:	ea4f 1606 	mov.w	r6, r6, lsl #4
 8001872:	ea4f 03c3 	mov.w	r3, r3, lsl #3
 8001876:	ea43 7352 	orr.w	r3, r3, r2, lsr #29
 800187a:	ea4f 02c2 	mov.w	r2, r2, lsl #3
 800187e:	ea5f 1c1c 	movs.w	ip, ip, lsr #4
 8001882:	d1c0      	bne.n	8001806 <__aeabi_ddiv+0x82>
 8001884:	f411 1f80 	tst.w	r1, #1048576	@ 0x100000
 8001888:	d10b      	bne.n	80018a2 <__aeabi_ddiv+0x11e>
 800188a:	ea41 0100 	orr.w	r1, r1, r0
 800188e:	f04f 0000 	mov.w	r0, #0
 8001892:	f04f 4c00 	mov.w	ip, #2147483648	@ 0x80000000
 8001896:	e7b6      	b.n	8001806 <__aeabi_ddiv+0x82>
 8001898:	f411 1f80 	tst.w	r1, #1048576	@ 0x100000
 800189c:	bf04      	itt	eq
 800189e:	4301      	orreq	r1, r0
 80018a0:	2000      	moveq	r0, #0
 80018a2:	f1b4 0cfd 	subs.w	ip, r4, #253	@ 0xfd
 80018a6:	bf88      	it	hi
 80018a8:	f5bc 6fe0 	cmphi.w	ip, #1792	@ 0x700
 80018ac:	f63f aeaf 	bhi.w	800160e <__aeabi_dmul+0xde>
 80018b0:	ebb5 0c03 	subs.w	ip, r5, r3
 80018b4:	bf04      	itt	eq
 80018b6:	ebb6 0c02 	subseq.w	ip, r6, r2
 80018ba:	ea5f 0c50 	movseq.w	ip, r0, lsr #1
 80018be:	f150 0000 	adcs.w	r0, r0, #0
 80018c2:	eb41 5104 	adc.w	r1, r1, r4, lsl #20
 80018c6:	bd70      	pop	{r4, r5, r6, pc}
 80018c8:	f00e 4e00 	and.w	lr, lr, #2147483648	@ 0x80000000
 80018cc:	ea4e 3111 	orr.w	r1, lr, r1, lsr #12
 80018d0:	eb14 045c 	adds.w	r4, r4, ip, lsr #1
 80018d4:	bfc2      	ittt	gt
 80018d6:	ebd4 050c 	rsbsgt	r5, r4, ip
 80018da:	ea41 5104 	orrgt.w	r1, r1, r4, lsl #20
 80018de:	bd70      	popgt	{r4, r5, r6, pc}
 80018e0:	f441 1180 	orr.w	r1, r1, #1048576	@ 0x100000
 80018e4:	f04f 0e00 	mov.w	lr, #0
 80018e8:	3c01      	subs	r4, #1
 80018ea:	e690      	b.n	800160e <__aeabi_dmul+0xde>
 80018ec:	ea45 0e06 	orr.w	lr, r5, r6
 80018f0:	e68d      	b.n	800160e <__aeabi_dmul+0xde>
 80018f2:	ea0c 5513 	and.w	r5, ip, r3, lsr #20
 80018f6:	ea94 0f0c 	teq	r4, ip
 80018fa:	bf08      	it	eq
 80018fc:	ea95 0f0c 	teqeq	r5, ip
 8001900:	f43f af3b 	beq.w	800177a <__aeabi_dmul+0x24a>
 8001904:	ea94 0f0c 	teq	r4, ip
 8001908:	d10a      	bne.n	8001920 <__aeabi_ddiv+0x19c>
 800190a:	ea50 3401 	orrs.w	r4, r0, r1, lsl #12
 800190e:	f47f af34 	bne.w	800177a <__aeabi_dmul+0x24a>
 8001912:	ea95 0f0c 	teq	r5, ip
 8001916:	f47f af25 	bne.w	8001764 <__aeabi_dmul+0x234>
 800191a:	4610      	mov	r0, r2
 800191c:	4619      	mov	r1, r3
 800191e:	e72c      	b.n	800177a <__aeabi_dmul+0x24a>
 8001920:	ea95 0f0c 	teq	r5, ip
 8001924:	d106      	bne.n	8001934 <__aeabi_ddiv+0x1b0>
 8001926:	ea52 3503 	orrs.w	r5, r2, r3, lsl #12
 800192a:	f43f aefd 	beq.w	8001728 <__aeabi_dmul+0x1f8>
 800192e:	4610      	mov	r0, r2
 8001930:	4619      	mov	r1, r3
 8001932:	e722      	b.n	800177a <__aeabi_dmul+0x24a>
 8001934:	ea50 0641 	orrs.w	r6, r0, r1, lsl #1
 8001938:	bf18      	it	ne
 800193a:	ea52 0643 	orrsne.w	r6, r2, r3, lsl #1
 800193e:	f47f aec5 	bne.w	80016cc <__aeabi_dmul+0x19c>
 8001942:	ea50 0441 	orrs.w	r4, r0, r1, lsl #1
 8001946:	f47f af0d 	bne.w	8001764 <__aeabi_dmul+0x234>
 800194a:	ea52 0543 	orrs.w	r5, r2, r3, lsl #1
 800194e:	f47f aeeb 	bne.w	8001728 <__aeabi_dmul+0x1f8>
 8001952:	e712      	b.n	800177a <__aeabi_dmul+0x24a>

08001954 <__gedf2>:
 8001954:	f04f 3cff 	mov.w	ip, #4294967295
 8001958:	e006      	b.n	8001968 <__cmpdf2+0x4>
 800195a:	bf00      	nop

0800195c <__ledf2>:
 800195c:	f04f 0c01 	mov.w	ip, #1
 8001960:	e002      	b.n	8001968 <__cmpdf2+0x4>
 8001962:	bf00      	nop

08001964 <__cmpdf2>:
 8001964:	f04f 0c01 	mov.w	ip, #1
 8001968:	f84d cd04 	str.w	ip, [sp, #-4]!
 800196c:	ea4f 0c41 	mov.w	ip, r1, lsl #1
 8001970:	ea7f 5c6c 	mvns.w	ip, ip, asr #21
 8001974:	ea4f 0c43 	mov.w	ip, r3, lsl #1
 8001978:	bf18      	it	ne
 800197a:	ea7f 5c6c 	mvnsne.w	ip, ip, asr #21
 800197e:	d01b      	beq.n	80019b8 <__cmpdf2+0x54>
 8001980:	b001      	add	sp, #4
 8001982:	ea50 0c41 	orrs.w	ip, r0, r1, lsl #1
 8001986:	bf0c      	ite	eq
 8001988:	ea52 0c43 	orrseq.w	ip, r2, r3, lsl #1
 800198c:	ea91 0f03 	teqne	r1, r3
 8001990:	bf02      	ittt	eq
 8001992:	ea90 0f02 	teqeq	r0, r2
 8001996:	2000      	moveq	r0, #0
 8001998:	4770      	bxeq	lr
 800199a:	f110 0f00 	cmn.w	r0, #0
 800199e:	ea91 0f03 	teq	r1, r3
 80019a2:	bf58      	it	pl
 80019a4:	4299      	cmppl	r1, r3
 80019a6:	bf08      	it	eq
 80019a8:	4290      	cmpeq	r0, r2
 80019aa:	bf2c      	ite	cs
 80019ac:	17d8      	asrcs	r0, r3, #31
 80019ae:	ea6f 70e3 	mvncc.w	r0, r3, asr #31
 80019b2:	f040 0001 	orr.w	r0, r0, #1
 80019b6:	4770      	bx	lr
 80019b8:	ea4f 0c41 	mov.w	ip, r1, lsl #1
 80019bc:	ea7f 5c6c 	mvns.w	ip, ip, asr #21
 80019c0:	d102      	bne.n	80019c8 <__cmpdf2+0x64>
 80019c2:	ea50 3c01 	orrs.w	ip, r0, r1, lsl #12
 80019c6:	d107      	bne.n	80019d8 <__cmpdf2+0x74>
 80019c8:	ea4f 0c43 	mov.w	ip, r3, lsl #1
 80019cc:	ea7f 5c6c 	mvns.w	ip, ip, asr #21
 80019d0:	d1d6      	bne.n	8001980 <__cmpdf2+0x1c>
 80019d2:	ea52 3c03 	orrs.w	ip, r2, r3, lsl #12
 80019d6:	d0d3      	beq.n	8001980 <__cmpdf2+0x1c>
 80019d8:	f85d 0b04 	ldr.w	r0, [sp], #4
 80019dc:	4770      	bx	lr
 80019de:	bf00      	nop

080019e0 <__aeabi_cdrcmple>:
 80019e0:	4684      	mov	ip, r0
 80019e2:	4610      	mov	r0, r2
 80019e4:	4662      	mov	r2, ip
 80019e6:	468c      	mov	ip, r1
 80019e8:	4619      	mov	r1, r3
 80019ea:	4663      	mov	r3, ip
 80019ec:	e000      	b.n	80019f0 <__aeabi_cdcmpeq>
 80019ee:	bf00      	nop

080019f0 <__aeabi_cdcmpeq>:
 80019f0:	b501      	push	{r0, lr}
 80019f2:	f7ff ffb7 	bl	8001964 <__cmpdf2>
 80019f6:	2800      	cmp	r0, #0
 80019f8:	bf48      	it	mi
 80019fa:	f110 0f00 	cmnmi.w	r0, #0
 80019fe:	bd01      	pop	{r0, pc}

08001a00 <__aeabi_dcmpeq>:
 8001a00:	f84d ed08 	str.w	lr, [sp, #-8]!
 8001a04:	f7ff fff4 	bl	80019f0 <__aeabi_cdcmpeq>
 8001a08:	bf0c      	ite	eq
 8001a0a:	2001      	moveq	r0, #1
 8001a0c:	2000      	movne	r0, #0
 8001a0e:	f85d fb08 	ldr.w	pc, [sp], #8
 8001a12:	bf00      	nop

08001a14 <__aeabi_dcmplt>:
 8001a14:	f84d ed08 	str.w	lr, [sp, #-8]!
 8001a18:	f7ff ffea 	bl	80019f0 <__aeabi_cdcmpeq>
 8001a1c:	bf34      	ite	cc
 8001a1e:	2001      	movcc	r0, #1
 8001a20:	2000      	movcs	r0, #0
 8001a22:	f85d fb08 	ldr.w	pc, [sp], #8
 8001a26:	bf00      	nop

08001a28 <__aeabi_dcmple>:
 8001a28:	f84d ed08 	str.w	lr, [sp, #-8]!
 8001a2c:	f7ff ffe0 	bl	80019f0 <__aeabi_cdcmpeq>
 8001a30:	bf94      	ite	ls
 8001a32:	2001      	movls	r0, #1
 8001a34:	2000      	movhi	r0, #0
 8001a36:	f85d fb08 	ldr.w	pc, [sp], #8
 8001a3a:	bf00      	nop

08001a3c <__aeabi_dcmpge>:
 8001a3c:	f84d ed08 	str.w	lr, [sp, #-8]!
 8001a40:	f7ff ffce 	bl	80019e0 <__aeabi_cdrcmple>
 8001a44:	bf94      	ite	ls
 8001a46:	2001      	movls	r0, #1
 8001a48:	2000      	movhi	r0, #0
 8001a4a:	f85d fb08 	ldr.w	pc, [sp], #8
 8001a4e:	bf00      	nop

08001a50 <__aeabi_dcmpgt>:
 8001a50:	f84d ed08 	str.w	lr, [sp, #-8]!
 8001a54:	f7ff ffc4 	bl	80019e0 <__aeabi_cdrcmple>
 8001a58:	bf34      	ite	cc
 8001a5a:	2001      	movcc	r0, #1
 8001a5c:	2000      	movcs	r0, #0
 8001a5e:	f85d fb08 	ldr.w	pc, [sp], #8
 8001a62:	bf00      	nop

08001a64 <__aeabi_dcmpun>:
 8001a64:	ea4f 0c41 	mov.w	ip, r1, lsl #1
 8001a68:	ea7f 5c6c 	mvns.w	ip, ip, asr #21
 8001a6c:	d102      	bne.n	8001a74 <__aeabi_dcmpun+0x10>
 8001a6e:	ea50 3c01 	orrs.w	ip, r0, r1, lsl #12
 8001a72:	d10a      	bne.n	8001a8a <__aeabi_dcmpun+0x26>
 8001a74:	ea4f 0c43 	mov.w	ip, r3, lsl #1
 8001a78:	ea7f 5c6c 	mvns.w	ip, ip, asr #21
 8001a7c:	d102      	bne.n	8001a84 <__aeabi_dcmpun+0x20>
 8001a7e:	ea52 3c03 	orrs.w	ip, r2, r3, lsl #12
 8001a82:	d102      	bne.n	8001a8a <__aeabi_dcmpun+0x26>
 8001a84:	f04f 0000 	mov.w	r0, #0
 8001a88:	4770      	bx	lr
 8001a8a:	f04f 0001 	mov.w	r0, #1
 8001a8e:	4770      	bx	lr

08001a90 <__aeabi_d2iz>:
 8001a90:	ea4f 0241 	mov.w	r2, r1, lsl #1
 8001a94:	f512 1200 	adds.w	r2, r2, #2097152	@ 0x200000
 8001a98:	d215      	bcs.n	8001ac6 <__aeabi_d2iz+0x36>
 8001a9a:	d511      	bpl.n	8001ac0 <__aeabi_d2iz+0x30>
 8001a9c:	f46f 7378 	mvn.w	r3, #992	@ 0x3e0
 8001aa0:	ebb3 5262 	subs.w	r2, r3, r2, asr #21
 8001aa4:	d912      	bls.n	8001acc <__aeabi_d2iz+0x3c>
 8001aa6:	ea4f 23c1 	mov.w	r3, r1, lsl #11
 8001aaa:	f043 4300 	orr.w	r3, r3, #2147483648	@ 0x80000000
 8001aae:	ea43 5350 	orr.w	r3, r3, r0, lsr #21
 8001ab2:	f011 4f00 	tst.w	r1, #2147483648	@ 0x80000000
 8001ab6:	fa23 f002 	lsr.w	r0, r3, r2
 8001aba:	bf18      	it	ne
 8001abc:	4240      	negne	r0, r0
 8001abe:	4770      	bx	lr
 8001ac0:	f04f 0000 	mov.w	r0, #0
 8001ac4:	4770      	bx	lr
 8001ac6:	ea50 3001 	orrs.w	r0, r0, r1, lsl #12
 8001aca:	d105      	bne.n	8001ad8 <__aeabi_d2iz+0x48>
 8001acc:	f011 4000 	ands.w	r0, r1, #2147483648	@ 0x80000000
 8001ad0:	bf08      	it	eq
 8001ad2:	f06f 4000 	mvneq.w	r0, #2147483648	@ 0x80000000
 8001ad6:	4770      	bx	lr
 8001ad8:	f04f 0000 	mov.w	r0, #0
 8001adc:	4770      	bx	lr
 8001ade:	bf00      	nop

08001ae0 <__aeabi_d2uiz>:
 8001ae0:	004a      	lsls	r2, r1, #1
 8001ae2:	d211      	bcs.n	8001b08 <__aeabi_d2uiz+0x28>
 8001ae4:	f512 1200 	adds.w	r2, r2, #2097152	@ 0x200000
 8001ae8:	d211      	bcs.n	8001b0e <__aeabi_d2uiz+0x2e>
 8001aea:	d50d      	bpl.n	8001b08 <__aeabi_d2uiz+0x28>
 8001aec:	f46f 7378 	mvn.w	r3, #992	@ 0x3e0
 8001af0:	ebb3 5262 	subs.w	r2, r3, r2, asr #21
 8001af4:	d40e      	bmi.n	8001b14 <__aeabi_d2uiz+0x34>
 8001af6:	ea4f 23c1 	mov.w	r3, r1, lsl #11
 8001afa:	f043 4300 	orr.w	r3, r3, #2147483648	@ 0x80000000
 8001afe:	ea43 5350 	orr.w	r3, r3, r0, lsr #21
 8001b02:	fa23 f002 	lsr.w	r0, r3, r2
 8001b06:	4770      	bx	lr
 8001b08:	f04f 0000 	mov.w	r0, #0
 8001b0c:	4770      	bx	lr
 8001b0e:	ea50 3001 	orrs.w	r0, r0, r1, lsl #12
 8001b12:	d102      	bne.n	8001b1a <__aeabi_d2uiz+0x3a>
 8001b14:	f04f 30ff 	mov.w	r0, #4294967295
 8001b18:	4770      	bx	lr
 8001b1a:	f04f 0000 	mov.w	r0, #0
 8001b1e:	4770      	bx	lr

Disassembly of section .text.__cvt:

08001b20 <__cvt>:
 8001b20:	e92d 47ff 	stmdb	sp!, {r0, r1, r2, r3, r4, r5, r6, r7, r8, r9, sl, lr}
 8001b24:	ec57 6b10 	vmov	r6, r7, d0
 8001b28:	2f00      	cmp	r7, #0
 8001b2a:	460c      	mov	r4, r1
 8001b2c:	4691      	mov	r9, r2
 8001b2e:	f8dd a030 	ldr.w	sl, [sp, #48]	@ 0x30
 8001b32:	4619      	mov	r1, r3
 8001b34:	f04f 0200 	mov.w	r2, #0
 8001b38:	da03      	bge.n	8001b42 <__cvt+0x22>
 8001b3a:	f107 4300 	add.w	r3, r7, #2147483648	@ 0x80000000
 8001b3e:	461f      	mov	r7, r3
 8001b40:	222d      	movs	r2, #45	@ 0x2d
 8001b42:	9d0d      	ldr	r5, [sp, #52]	@ 0x34
 8001b44:	700a      	strb	r2, [r1, #0]
 8001b46:	f025 0520 	bic.w	r5, r5, #32
 8001b4a:	2d46      	cmp	r5, #70	@ 0x46
 8001b4c:	d004      	beq.n	8001b58 <__cvt+0x38>
 8001b4e:	2d45      	cmp	r5, #69	@ 0x45
 8001b50:	d100      	bne.n	8001b54 <__cvt+0x34>
 8001b52:	3401      	adds	r4, #1
 8001b54:	2102      	movs	r1, #2
 8001b56:	e000      	b.n	8001b5a <__cvt+0x3a>
 8001b58:	2103      	movs	r1, #3
 8001b5a:	ab03      	add	r3, sp, #12
 8001b5c:	9301      	str	r3, [sp, #4]
 8001b5e:	ab02      	add	r3, sp, #8
 8001b60:	9300      	str	r3, [sp, #0]
 8001b62:	ec47 6b10 	vmov	d0, r6, r7
 8001b66:	4653      	mov	r3, sl
 8001b68:	4622      	mov	r2, r4
 8001b6a:	f000 fdd1 	bl	8002710 <_dtoa_r>
 8001b6e:	2d47      	cmp	r5, #71	@ 0x47
 8001b70:	4680      	mov	r8, r0
 8001b72:	d11a      	bne.n	8001baa <__cvt+0x8a>
 8001b74:	f019 0f01 	tst.w	r9, #1
 8001b78:	d00e      	beq.n	8001b98 <__cvt+0x78>
 8001b7a:	eb00 0904 	add.w	r9, r0, r4
 8001b7e:	2200      	movs	r2, #0
 8001b80:	2300      	movs	r3, #0
 8001b82:	4630      	mov	r0, r6
 8001b84:	4639      	mov	r1, r7
 8001b86:	f7ff ff3b 	bl	8001a00 <__aeabi_dcmpeq>
 8001b8a:	b108      	cbz	r0, 8001b90 <__cvt+0x70>
 8001b8c:	f8cd 900c 	str.w	r9, [sp, #12]
 8001b90:	2230      	movs	r2, #48	@ 0x30
 8001b92:	9b03      	ldr	r3, [sp, #12]
 8001b94:	454b      	cmp	r3, r9
 8001b96:	d31e      	bcc.n	8001bd6 <__cvt+0xb6>
 8001b98:	9b03      	ldr	r3, [sp, #12]
 8001b9a:	9a0e      	ldr	r2, [sp, #56]	@ 0x38
 8001b9c:	eba3 0308 	sub.w	r3, r3, r8
 8001ba0:	4640      	mov	r0, r8
 8001ba2:	6013      	str	r3, [r2, #0]
 8001ba4:	b004      	add	sp, #16
 8001ba6:	e8bd 87f0 	ldmia.w	sp!, {r4, r5, r6, r7, r8, r9, sl, pc}
 8001baa:	2d46      	cmp	r5, #70	@ 0x46
 8001bac:	eb00 0904 	add.w	r9, r0, r4
 8001bb0:	d1e5      	bne.n	8001b7e <__cvt+0x5e>
 8001bb2:	7803      	ldrb	r3, [r0, #0]
 8001bb4:	2b30      	cmp	r3, #48	@ 0x30
 8001bb6:	d10a      	bne.n	8001bce <__cvt+0xae>
 8001bb8:	2200      	movs	r2, #0
 8001bba:	2300      	movs	r3, #0
 8001bbc:	4630      	mov	r0, r6
 8001bbe:	4639      	mov	r1, r7
 8001bc0:	f7ff ff1e 	bl	8001a00 <__aeabi_dcmpeq>
 8001bc4:	b918      	cbnz	r0, 8001bce <__cvt+0xae>
 8001bc6:	f1c4 0401 	rsb	r4, r4, #1
 8001bca:	f8ca 4000 	str.w	r4, [sl]
 8001bce:	f8da 3000 	ldr.w	r3, [sl]
 8001bd2:	4499      	add	r9, r3
 8001bd4:	e7d3      	b.n	8001b7e <__cvt+0x5e>
 8001bd6:	1c59      	adds	r1, r3, #1
 8001bd8:	9103      	str	r1, [sp, #12]
 8001bda:	701a      	strb	r2, [r3, #0]
 8001bdc:	e7d9      	b.n	8001b92 <__cvt+0x72>

Disassembly of section .text.__exponent:

08001bde <__exponent>:
 8001bde:	b5f7      	push	{r0, r1, r2, r4, r5, r6, r7, lr}
 8001be0:	2900      	cmp	r1, #0
 8001be2:	bfba      	itte	lt
 8001be4:	4249      	neglt	r1, r1
 8001be6:	232d      	movlt	r3, #45	@ 0x2d
 8001be8:	232b      	movge	r3, #43	@ 0x2b
 8001bea:	2909      	cmp	r1, #9
 8001bec:	7002      	strb	r2, [r0, #0]
 8001bee:	7043      	strb	r3, [r0, #1]
 8001bf0:	dd2a      	ble.n	8001c48 <__exponent+0x6a>
 8001bf2:	f10d 0407 	add.w	r4, sp, #7
 8001bf6:	1c87      	adds	r7, r0, #2
 8001bf8:	46a6      	mov	lr, r4
 8001bfa:	260a      	movs	r6, #10
 8001bfc:	46a4      	mov	ip, r4
 8001bfe:	fbb1 f5f6 	udiv	r5, r1, r6
 8001c02:	fb06 1215 	mls	r2, r6, r5, r1
 8001c06:	3230      	adds	r2, #48	@ 0x30
 8001c08:	2963      	cmp	r1, #99	@ 0x63
 8001c0a:	f104 34ff 	add.w	r4, r4, #4294967295
 8001c0e:	f80c 2c01 	strb.w	r2, [ip, #-1]
 8001c12:	4629      	mov	r1, r5
 8001c14:	dcf2      	bgt.n	8001bfc <__exponent+0x1e>
 8001c16:	3130      	adds	r1, #48	@ 0x30
 8001c18:	f1ac 0202 	sub.w	r2, ip, #2
 8001c1c:	f804 1c01 	strb.w	r1, [r4, #-1]
 8001c20:	1c41      	adds	r1, r0, #1
 8001c22:	4614      	mov	r4, r2
 8001c24:	4572      	cmp	r2, lr
 8001c26:	d30a      	bcc.n	8001c3e <__exponent+0x60>
 8001c28:	f10d 0309 	add.w	r3, sp, #9
 8001c2c:	eba3 030c 	sub.w	r3, r3, ip
 8001c30:	45a6      	cmp	lr, r4
 8001c32:	bf38      	it	cc
 8001c34:	2300      	movcc	r3, #0
 8001c36:	443b      	add	r3, r7
 8001c38:	1a18      	subs	r0, r3, r0
 8001c3a:	b003      	add	sp, #12
 8001c3c:	bdf0      	pop	{r4, r5, r6, r7, pc}
 8001c3e:	f812 3b01 	ldrb.w	r3, [r2], #1
 8001c42:	f801 3f01 	strb.w	r3, [r1, #1]!
 8001c46:	e7ed      	b.n	8001c24 <__exponent+0x46>
 8001c48:	2330      	movs	r3, #48	@ 0x30
 8001c4a:	3130      	adds	r1, #48	@ 0x30
 8001c4c:	7083      	strb	r3, [r0, #2]
 8001c4e:	70c1      	strb	r1, [r0, #3]
 8001c50:	1d03      	adds	r3, r0, #4
 8001c52:	e7f1      	b.n	8001c38 <__exponent+0x5a>

Disassembly of section .text._printf_float:

08001c54 <_printf_float>:
 8001c54:	e92d 4ff0 	stmdb	sp!, {r4, r5, r6, r7, r8, r9, sl, fp, lr}
 8001c58:	b08f      	sub	sp, #60	@ 0x3c
 8001c5a:	460c      	mov	r4, r1
 8001c5c:	f8dd 8060 	ldr.w	r8, [sp, #96]	@ 0x60
 8001c60:	4616      	mov	r6, r2
 8001c62:	461f      	mov	r7, r3
 8001c64:	4605      	mov	r5, r0
 8001c66:	f000 fcaf 	bl	80025c8 <_localeconv_r>
 8001c6a:	6803      	ldr	r3, [r0, #0]
 8001c6c:	9307      	str	r3, [sp, #28]
 8001c6e:	4618      	mov	r0, r3
 8001c70:	f7ff f966 	bl	8000f40 <strlen>
 8001c74:	2300      	movs	r3, #0
 8001c76:	930c      	str	r3, [sp, #48]	@ 0x30
 8001c78:	f8d8 3000 	ldr.w	r3, [r8]
 8001c7c:	f894 a018 	ldrb.w	sl, [r4, #24]
 8001c80:	f8d4 b000 	ldr.w	fp, [r4]
 8001c84:	9008      	str	r0, [sp, #32]
 8001c86:	3307      	adds	r3, #7
 8001c88:	f023 0307 	bic.w	r3, r3, #7
 8001c8c:	ecb3 7b02 	vldmia	r3!, {d7}
 8001c90:	ed8d 7b04 	vstr	d7, [sp, #16]
 8001c94:	f8c8 3000 	str.w	r3, [r8]
 8001c98:	e9dd 8304 	ldrd	r8, r3, [sp, #16]
 8001c9c:	f023 4900 	bic.w	r9, r3, #2147483648	@ 0x80000000
 8001ca0:	ed84 7b12 	vstr	d7, [r4, #72]	@ 0x48
 8001ca4:	4b9a      	ldr	r3, [pc, #616]	@ (8001f10 <_printf_float+0x2bc>)
 8001ca6:	f04f 32ff 	mov.w	r2, #4294967295
 8001caa:	4640      	mov	r0, r8
 8001cac:	4649      	mov	r1, r9
 8001cae:	f7ff fed9 	bl	8001a64 <__aeabi_dcmpun>
 8001cb2:	bb70      	cbnz	r0, 8001d12 <_printf_float+0xbe>
 8001cb4:	4b96      	ldr	r3, [pc, #600]	@ (8001f10 <_printf_float+0x2bc>)
 8001cb6:	f04f 32ff 	mov.w	r2, #4294967295
 8001cba:	4640      	mov	r0, r8
 8001cbc:	4649      	mov	r1, r9
 8001cbe:	f7ff feb3 	bl	8001a28 <__aeabi_dcmple>
 8001cc2:	bb30      	cbnz	r0, 8001d12 <_printf_float+0xbe>
 8001cc4:	e9dd 0104 	ldrd	r0, r1, [sp, #16]
 8001cc8:	2200      	movs	r2, #0
 8001cca:	2300      	movs	r3, #0
 8001ccc:	f7ff fea2 	bl	8001a14 <__aeabi_dcmplt>
 8001cd0:	b110      	cbz	r0, 8001cd8 <_printf_float+0x84>
 8001cd2:	232d      	movs	r3, #45	@ 0x2d
 8001cd4:	f884 3043 	strb.w	r3, [r4, #67]	@ 0x43
 8001cd8:	4a8e      	ldr	r2, [pc, #568]	@ (8001f14 <_printf_float+0x2c0>)
 8001cda:	4b8f      	ldr	r3, [pc, #572]	@ (8001f18 <_printf_float+0x2c4>)
 8001cdc:	f1ba 0f47 	cmp.w	sl, #71	@ 0x47
 8001ce0:	bf8c      	ite	hi
 8001ce2:	4690      	movhi	r8, r2
 8001ce4:	4698      	movls	r8, r3
 8001ce6:	2303      	movs	r3, #3
 8001ce8:	6123      	str	r3, [r4, #16]
 8001cea:	f02b 0304 	bic.w	r3, fp, #4
 8001cee:	6023      	str	r3, [r4, #0]
 8001cf0:	f04f 0900 	mov.w	r9, #0
 8001cf4:	9700      	str	r7, [sp, #0]
 8001cf6:	4633      	mov	r3, r6
 8001cf8:	aa0d      	add	r2, sp, #52	@ 0x34
 8001cfa:	4621      	mov	r1, r4
 8001cfc:	4628      	mov	r0, r5
 8001cfe:	f000 f9cd 	bl	800209c <_printf_common>
 8001d02:	3001      	adds	r0, #1
 8001d04:	f040 808c 	bne.w	8001e20 <_printf_float+0x1cc>
 8001d08:	f04f 30ff 	mov.w	r0, #4294967295
 8001d0c:	b00f      	add	sp, #60	@ 0x3c
 8001d0e:	e8bd 8ff0 	ldmia.w	sp!, {r4, r5, r6, r7, r8, r9, sl, fp, pc}
 8001d12:	e9dd 2304 	ldrd	r2, r3, [sp, #16]
 8001d16:	4610      	mov	r0, r2
 8001d18:	4619      	mov	r1, r3
 8001d1a:	f7ff fea3 	bl	8001a64 <__aeabi_dcmpun>
 8001d1e:	b140      	cbz	r0, 8001d32 <_printf_float+0xde>
 8001d20:	9b05      	ldr	r3, [sp, #20]
 8001d22:	4a7e      	ldr	r2, [pc, #504]	@ (8001f1c <_printf_float+0x2c8>)
 8001d24:	2b00      	cmp	r3, #0
 8001d26:	bfbc      	itt	lt
 8001d28:	232d      	movlt	r3, #45	@ 0x2d
 8001d2a:	f884 3043 	strblt.w	r3, [r4, #67]	@ 0x43
 8001d2e:	4b7c      	ldr	r3, [pc, #496]	@ (8001f20 <_printf_float+0x2cc>)
 8001d30:	e7d4      	b.n	8001cdc <_printf_float+0x88>
 8001d32:	6863      	ldr	r3, [r4, #4]
 8001d34:	1c5a      	adds	r2, r3, #1
 8001d36:	f00a 09df 	and.w	r9, sl, #223	@ 0xdf
 8001d3a:	d13b      	bne.n	8001db4 <_printf_float+0x160>
 8001d3c:	2306      	movs	r3, #6
 8001d3e:	6063      	str	r3, [r4, #4]
 8001d40:	f44b 6280 	orr.w	r2, fp, #1024	@ 0x400
 8001d44:	2300      	movs	r3, #0
 8001d46:	6022      	str	r2, [r4, #0]
 8001d48:	9303      	str	r3, [sp, #12]
 8001d4a:	ab0c      	add	r3, sp, #48	@ 0x30
 8001d4c:	e9cd a301 	strd	sl, r3, [sp, #4]
 8001d50:	ab0b      	add	r3, sp, #44	@ 0x2c
 8001d52:	9300      	str	r3, [sp, #0]
 8001d54:	6861      	ldr	r1, [r4, #4]
 8001d56:	ed9d 0b04 	vldr	d0, [sp, #16]
 8001d5a:	f10d 032b 	add.w	r3, sp, #43	@ 0x2b
 8001d5e:	4628      	mov	r0, r5
 8001d60:	f7ff fede 	bl	8001b20 <__cvt>
 8001d64:	f1b9 0f47 	cmp.w	r9, #71	@ 0x47
 8001d68:	990b      	ldr	r1, [sp, #44]	@ 0x2c
 8001d6a:	4680      	mov	r8, r0
 8001d6c:	d129      	bne.n	8001dc2 <_printf_float+0x16e>
 8001d6e:	1cc8      	adds	r0, r1, #3
 8001d70:	db02      	blt.n	8001d78 <_printf_float+0x124>
 8001d72:	6863      	ldr	r3, [r4, #4]
 8001d74:	428b      	cmp	r3, r1
 8001d76:	da41      	bge.n	8001dfc <_printf_float+0x1a8>
 8001d78:	f1aa 0a02 	sub.w	sl, sl, #2
 8001d7c:	fa5f fa8a 	uxtb.w	sl, sl
 8001d80:	3901      	subs	r1, #1
 8001d82:	4652      	mov	r2, sl
 8001d84:	f104 0050 	add.w	r0, r4, #80	@ 0x50
 8001d88:	910b      	str	r1, [sp, #44]	@ 0x2c
 8001d8a:	f7ff ff28 	bl	8001bde <__exponent>
 8001d8e:	9a0c      	ldr	r2, [sp, #48]	@ 0x30
 8001d90:	1813      	adds	r3, r2, r0
 8001d92:	2a01      	cmp	r2, #1
 8001d94:	4681      	mov	r9, r0
 8001d96:	6123      	str	r3, [r4, #16]
 8001d98:	dc02      	bgt.n	8001da0 <_printf_float+0x14c>
 8001d9a:	6822      	ldr	r2, [r4, #0]
 8001d9c:	07d2      	lsls	r2, r2, #31
 8001d9e:	d501      	bpl.n	8001da4 <_printf_float+0x150>
 8001da0:	3301      	adds	r3, #1
 8001da2:	6123      	str	r3, [r4, #16]
 8001da4:	f89d 302b 	ldrb.w	r3, [sp, #43]	@ 0x2b
 8001da8:	2b00      	cmp	r3, #0
 8001daa:	d0a3      	beq.n	8001cf4 <_printf_float+0xa0>
 8001dac:	232d      	movs	r3, #45	@ 0x2d
 8001dae:	f884 3043 	strb.w	r3, [r4, #67]	@ 0x43
 8001db2:	e79f      	b.n	8001cf4 <_printf_float+0xa0>
 8001db4:	f1b9 0f47 	cmp.w	r9, #71	@ 0x47
 8001db8:	d1c2      	bne.n	8001d40 <_printf_float+0xec>
 8001dba:	2b00      	cmp	r3, #0
 8001dbc:	d1c0      	bne.n	8001d40 <_printf_float+0xec>
 8001dbe:	2301      	movs	r3, #1
 8001dc0:	e7bd      	b.n	8001d3e <_printf_float+0xea>
 8001dc2:	f1ba 0f65 	cmp.w	sl, #101	@ 0x65
 8001dc6:	d9db      	bls.n	8001d80 <_printf_float+0x12c>
 8001dc8:	f1ba 0f66 	cmp.w	sl, #102	@ 0x66
 8001dcc:	d118      	bne.n	8001e00 <_printf_float+0x1ac>
 8001dce:	2900      	cmp	r1, #0
 8001dd0:	6863      	ldr	r3, [r4, #4]
 8001dd2:	dd0b      	ble.n	8001dec <_printf_float+0x198>
 8001dd4:	6121      	str	r1, [r4, #16]
 8001dd6:	b913      	cbnz	r3, 8001dde <_printf_float+0x18a>
 8001dd8:	6822      	ldr	r2, [r4, #0]
 8001dda:	07d0      	lsls	r0, r2, #31
 8001ddc:	d502      	bpl.n	8001de4 <_printf_float+0x190>
 8001dde:	3301      	adds	r3, #1
 8001de0:	440b      	add	r3, r1
 8001de2:	6123      	str	r3, [r4, #16]
 8001de4:	65a1      	str	r1, [r4, #88]	@ 0x58
 8001de6:	f04f 0900 	mov.w	r9, #0
 8001dea:	e7db      	b.n	8001da4 <_printf_float+0x150>
 8001dec:	b913      	cbnz	r3, 8001df4 <_printf_float+0x1a0>
 8001dee:	6822      	ldr	r2, [r4, #0]
 8001df0:	07d2      	lsls	r2, r2, #31
 8001df2:	d501      	bpl.n	8001df8 <_printf_float+0x1a4>
 8001df4:	3302      	adds	r3, #2
 8001df6:	e7f4      	b.n	8001de2 <_printf_float+0x18e>
 8001df8:	2301      	movs	r3, #1
 8001dfa:	e7f2      	b.n	8001de2 <_printf_float+0x18e>
 8001dfc:	f04f 0a67 	mov.w	sl, #103	@ 0x67
 8001e00:	9b0c      	ldr	r3, [sp, #48]	@ 0x30
 8001e02:	428b      	cmp	r3, r1
 8001e04:	dc05      	bgt.n	8001e12 <_printf_float+0x1be>
 8001e06:	6823      	ldr	r3, [r4, #0]
 8001e08:	6121      	str	r1, [r4, #16]
 8001e0a:	07d8      	lsls	r0, r3, #31
 8001e0c:	d5ea      	bpl.n	8001de4 <_printf_float+0x190>
 8001e0e:	1c4b      	adds	r3, r1, #1
 8001e10:	e7e7      	b.n	8001de2 <_printf_float+0x18e>
 8001e12:	2900      	cmp	r1, #0
 8001e14:	bfd4      	ite	le
 8001e16:	f1c1 0202 	rsble	r2, r1, #2
 8001e1a:	2201      	movgt	r2, #1
 8001e1c:	4413      	add	r3, r2
 8001e1e:	e7e0      	b.n	8001de2 <_printf_float+0x18e>
 8001e20:	6823      	ldr	r3, [r4, #0]
 8001e22:	055a      	lsls	r2, r3, #21
 8001e24:	d407      	bmi.n	8001e36 <_printf_float+0x1e2>
 8001e26:	6923      	ldr	r3, [r4, #16]
 8001e28:	4642      	mov	r2, r8
 8001e2a:	4631      	mov	r1, r6
 8001e2c:	4628      	mov	r0, r5
 8001e2e:	47b8      	blx	r7
 8001e30:	3001      	adds	r0, #1
 8001e32:	d128      	bne.n	8001e86 <_printf_float+0x232>
 8001e34:	e768      	b.n	8001d08 <_printf_float+0xb4>
 8001e36:	f1ba 0f65 	cmp.w	sl, #101	@ 0x65
 8001e3a:	f240 80db 	bls.w	8001ff4 <_printf_float+0x3a0>
 8001e3e:	e9d4 0112 	ldrd	r0, r1, [r4, #72]	@ 0x48
 8001e42:	2200      	movs	r2, #0
 8001e44:	2300      	movs	r3, #0
 8001e46:	f7ff fddb 	bl	8001a00 <__aeabi_dcmpeq>
 8001e4a:	b390      	cbz	r0, 8001eb2 <_printf_float+0x25e>
 8001e4c:	4a35      	ldr	r2, [pc, #212]	@ (8001f24 <_printf_float+0x2d0>)
 8001e4e:	2301      	movs	r3, #1
 8001e50:	4631      	mov	r1, r6
 8001e52:	4628      	mov	r0, r5
 8001e54:	47b8      	blx	r7
 8001e56:	3001      	adds	r0, #1
 8001e58:	f43f af56 	beq.w	8001d08 <_printf_float+0xb4>
 8001e5c:	e9dd 380b 	ldrd	r3, r8, [sp, #44]	@ 0x2c
 8001e60:	4543      	cmp	r3, r8
 8001e62:	db02      	blt.n	8001e6a <_printf_float+0x216>
 8001e64:	6823      	ldr	r3, [r4, #0]
 8001e66:	07d8      	lsls	r0, r3, #31
 8001e68:	d50d      	bpl.n	8001e86 <_printf_float+0x232>
 8001e6a:	e9dd 2307 	ldrd	r2, r3, [sp, #28]
 8001e6e:	4631      	mov	r1, r6
 8001e70:	4628      	mov	r0, r5
 8001e72:	47b8      	blx	r7
 8001e74:	3001      	adds	r0, #1
 8001e76:	f43f af47 	beq.w	8001d08 <_printf_float+0xb4>
 8001e7a:	f04f 0900 	mov.w	r9, #0
 8001e7e:	f108 38ff 	add.w	r8, r8, #4294967295
 8001e82:	45c8      	cmp	r8, r9
 8001e84:	dc09      	bgt.n	8001e9a <_printf_float+0x246>
 8001e86:	6823      	ldr	r3, [r4, #0]
 8001e88:	079b      	lsls	r3, r3, #30
 8001e8a:	f100 8104 	bmi.w	8002096 <_printf_float+0x442>
 8001e8e:	68e0      	ldr	r0, [r4, #12]
 8001e90:	9b0d      	ldr	r3, [sp, #52]	@ 0x34
 8001e92:	4298      	cmp	r0, r3
 8001e94:	bfb8      	it	lt
 8001e96:	4618      	movlt	r0, r3
 8001e98:	e738      	b.n	8001d0c <_printf_float+0xb8>
 8001e9a:	2301      	movs	r3, #1
 8001e9c:	f104 021a 	add.w	r2, r4, #26
 8001ea0:	4631      	mov	r1, r6
 8001ea2:	4628      	mov	r0, r5
 8001ea4:	47b8      	blx	r7
 8001ea6:	3001      	adds	r0, #1
 8001ea8:	f43f af2e 	beq.w	8001d08 <_printf_float+0xb4>
 8001eac:	f109 0901 	add.w	r9, r9, #1
 8001eb0:	e7e7      	b.n	8001e82 <_printf_float+0x22e>
 8001eb2:	9b0b      	ldr	r3, [sp, #44]	@ 0x2c
 8001eb4:	4283      	cmp	r3, r0
 8001eb6:	dc37      	bgt.n	8001f28 <_printf_float+0x2d4>
 8001eb8:	4a1a      	ldr	r2, [pc, #104]	@ (8001f24 <_printf_float+0x2d0>)
 8001eba:	2301      	movs	r3, #1
 8001ebc:	4631      	mov	r1, r6
 8001ebe:	4628      	mov	r0, r5
 8001ec0:	47b8      	blx	r7
 8001ec2:	3001      	adds	r0, #1
 8001ec4:	f43f af20 	beq.w	8001d08 <_printf_float+0xb4>
 8001ec8:	e9dd 390b 	ldrd	r3, r9, [sp, #44]	@ 0x2c
 8001ecc:	ea59 0303 	orrs.w	r3, r9, r3
 8001ed0:	d102      	bne.n	8001ed8 <_printf_float+0x284>
 8001ed2:	6823      	ldr	r3, [r4, #0]
 8001ed4:	07d9      	lsls	r1, r3, #31
 8001ed6:	d5d6      	bpl.n	8001e86 <_printf_float+0x232>
 8001ed8:	e9dd 2307 	ldrd	r2, r3, [sp, #28]
 8001edc:	4631      	mov	r1, r6
 8001ede:	4628      	mov	r0, r5
 8001ee0:	47b8      	blx	r7
 8001ee2:	3001      	adds	r0, #1
 8001ee4:	f43f af10 	beq.w	8001d08 <_printf_float+0xb4>
 8001ee8:	f04f 0a00 	mov.w	sl, #0
 8001eec:	9b0b      	ldr	r3, [sp, #44]	@ 0x2c
 8001eee:	425b      	negs	r3, r3
 8001ef0:	4553      	cmp	r3, sl
 8001ef2:	dc01      	bgt.n	8001ef8 <_printf_float+0x2a4>
 8001ef4:	464b      	mov	r3, r9
 8001ef6:	e797      	b.n	8001e28 <_printf_float+0x1d4>
 8001ef8:	2301      	movs	r3, #1
 8001efa:	f104 021a 	add.w	r2, r4, #26
 8001efe:	4631      	mov	r1, r6
 8001f00:	4628      	mov	r0, r5
 8001f02:	47b8      	blx	r7
 8001f04:	3001      	adds	r0, #1
 8001f06:	f43f aeff 	beq.w	8001d08 <_printf_float+0xb4>
 8001f0a:	f10a 0a01 	add.w	sl, sl, #1
 8001f0e:	e7ed      	b.n	8001eec <_printf_float+0x298>
 8001f10:	7fefffff 			@ <UNDEFINED> instruction: 7fefffff
 8001f14:	080053d0 			@ <UNDEFINED> instruction: 080053d0
 8001f18:	080053cc 			@ <UNDEFINED> instruction: 080053cc
 8001f1c:	080053d8 			@ <UNDEFINED> instruction: 080053d8
 8001f20:	080053d4 			@ <UNDEFINED> instruction: 080053d4
 8001f24:	080053dc 			@ <UNDEFINED> instruction: 080053dc
 8001f28:	6da3      	ldr	r3, [r4, #88]	@ 0x58
 8001f2a:	f8dd b030 	ldr.w	fp, [sp, #48]	@ 0x30
 8001f2e:	455b      	cmp	r3, fp
 8001f30:	bfa8      	it	ge
 8001f32:	465b      	movge	r3, fp
 8001f34:	2b00      	cmp	r3, #0
 8001f36:	9304      	str	r3, [sp, #16]
 8001f38:	dc37      	bgt.n	8001faa <_printf_float+0x356>
 8001f3a:	f04f 0900 	mov.w	r9, #0
 8001f3e:	f104 021a 	add.w	r2, r4, #26
 8001f42:	9b04      	ldr	r3, [sp, #16]
 8001f44:	f8d4 a058 	ldr.w	sl, [r4, #88]	@ 0x58
 8001f48:	2b00      	cmp	r3, #0
 8001f4a:	bfac      	ite	ge
 8001f4c:	ebaa 0303 	subge.w	r3, sl, r3
 8001f50:	4653      	movlt	r3, sl
 8001f52:	454b      	cmp	r3, r9
 8001f54:	dc31      	bgt.n	8001fba <_printf_float+0x366>
 8001f56:	9b0b      	ldr	r3, [sp, #44]	@ 0x2c
 8001f58:	459b      	cmp	fp, r3
 8001f5a:	dc3a      	bgt.n	8001fd2 <_printf_float+0x37e>
 8001f5c:	6823      	ldr	r3, [r4, #0]
 8001f5e:	07da      	lsls	r2, r3, #31
 8001f60:	d437      	bmi.n	8001fd2 <_printf_float+0x37e>
 8001f62:	9b0b      	ldr	r3, [sp, #44]	@ 0x2c
 8001f64:	ebab 0903 	sub.w	r9, fp, r3
 8001f68:	ebab 030a 	sub.w	r3, fp, sl
 8001f6c:	4599      	cmp	r9, r3
 8001f6e:	bfa8      	it	ge
 8001f70:	4699      	movge	r9, r3
 8001f72:	f1b9 0f00 	cmp.w	r9, #0
 8001f76:	dc34      	bgt.n	8001fe2 <_printf_float+0x38e>
 8001f78:	f04f 0800 	mov.w	r8, #0
 8001f7c:	9b0b      	ldr	r3, [sp, #44]	@ 0x2c
 8001f7e:	f1b9 0f00 	cmp.w	r9, #0
 8001f82:	ebab 0303 	sub.w	r3, fp, r3
 8001f86:	bfa8      	it	ge
 8001f88:	eba3 0309 	subge.w	r3, r3, r9
 8001f8c:	4543      	cmp	r3, r8
 8001f8e:	f77f af7a 	ble.w	8001e86 <_printf_float+0x232>
 8001f92:	2301      	movs	r3, #1
 8001f94:	f104 021a 	add.w	r2, r4, #26
 8001f98:	4631      	mov	r1, r6
 8001f9a:	4628      	mov	r0, r5
 8001f9c:	47b8      	blx	r7
 8001f9e:	3001      	adds	r0, #1
 8001fa0:	f43f aeb2 	beq.w	8001d08 <_printf_float+0xb4>
 8001fa4:	f108 0801 	add.w	r8, r8, #1
 8001fa8:	e7e8      	b.n	8001f7c <_printf_float+0x328>
 8001faa:	9b04      	ldr	r3, [sp, #16]
 8001fac:	4642      	mov	r2, r8
 8001fae:	4631      	mov	r1, r6
 8001fb0:	4628      	mov	r0, r5
 8001fb2:	47b8      	blx	r7
 8001fb4:	3001      	adds	r0, #1
 8001fb6:	d1c0      	bne.n	8001f3a <_printf_float+0x2e6>
 8001fb8:	e6a6      	b.n	8001d08 <_printf_float+0xb4>
 8001fba:	2301      	movs	r3, #1
 8001fbc:	4631      	mov	r1, r6
 8001fbe:	4628      	mov	r0, r5
 8001fc0:	9209      	str	r2, [sp, #36]	@ 0x24
 8001fc2:	47b8      	blx	r7
 8001fc4:	3001      	adds	r0, #1
 8001fc6:	f43f ae9f 	beq.w	8001d08 <_printf_float+0xb4>
 8001fca:	9a09      	ldr	r2, [sp, #36]	@ 0x24
 8001fcc:	f109 0901 	add.w	r9, r9, #1
 8001fd0:	e7b7      	b.n	8001f42 <_printf_float+0x2ee>
 8001fd2:	e9dd 2307 	ldrd	r2, r3, [sp, #28]
 8001fd6:	4631      	mov	r1, r6
 8001fd8:	4628      	mov	r0, r5
 8001fda:	47b8      	blx	r7
 8001fdc:	3001      	adds	r0, #1
 8001fde:	d1c0      	bne.n	8001f62 <_printf_float+0x30e>
 8001fe0:	e692      	b.n	8001d08 <_printf_float+0xb4>
 8001fe2:	464b      	mov	r3, r9
 8001fe4:	eb08 020a 	add.w	r2, r8, sl
 8001fe8:	4631      	mov	r1, r6
 8001fea:	4628      	mov	r0, r5
 8001fec:	47b8      	blx	r7
 8001fee:	3001      	adds	r0, #1
 8001ff0:	d1c2      	bne.n	8001f78 <_printf_float+0x324>
 8001ff2:	e689      	b.n	8001d08 <_printf_float+0xb4>
 8001ff4:	f8dd a030 	ldr.w	sl, [sp, #48]	@ 0x30
 8001ff8:	f1ba 0f01 	cmp.w	sl, #1
 8001ffc:	dc01      	bgt.n	8002002 <_printf_float+0x3ae>
 8001ffe:	07db      	lsls	r3, r3, #31
 8002000:	d535      	bpl.n	800206e <_printf_float+0x41a>
 8002002:	2301      	movs	r3, #1
 8002004:	4642      	mov	r2, r8
 8002006:	4631      	mov	r1, r6
 8002008:	4628      	mov	r0, r5
 800200a:	47b8      	blx	r7
 800200c:	3001      	adds	r0, #1
 800200e:	f43f ae7b 	beq.w	8001d08 <_printf_float+0xb4>
 8002012:	e9dd 2307 	ldrd	r2, r3, [sp, #28]
 8002016:	4631      	mov	r1, r6
 8002018:	4628      	mov	r0, r5
 800201a:	47b8      	blx	r7
 800201c:	3001      	adds	r0, #1
 800201e:	f43f ae73 	beq.w	8001d08 <_printf_float+0xb4>
 8002022:	e9d4 0112 	ldrd	r0, r1, [r4, #72]	@ 0x48
 8002026:	2200      	movs	r2, #0
 8002028:	2300      	movs	r3, #0
 800202a:	f10a 3aff 	add.w	sl, sl, #4294967295
 800202e:	f7ff fce7 	bl	8001a00 <__aeabi_dcmpeq>
 8002032:	b9c8      	cbnz	r0, 8002068 <_printf_float+0x414>
 8002034:	4653      	mov	r3, sl
 8002036:	f108 0201 	add.w	r2, r8, #1
 800203a:	4631      	mov	r1, r6
 800203c:	4628      	mov	r0, r5
 800203e:	47b8      	blx	r7
 8002040:	3001      	adds	r0, #1
 8002042:	d10d      	bne.n	8002060 <_printf_float+0x40c>
 8002044:	e660      	b.n	8001d08 <_printf_float+0xb4>
 8002046:	2301      	movs	r3, #1
 8002048:	f104 021a 	add.w	r2, r4, #26
 800204c:	4631      	mov	r1, r6
 800204e:	4628      	mov	r0, r5
 8002050:	47b8      	blx	r7
 8002052:	3001      	adds	r0, #1
 8002054:	f43f ae58 	beq.w	8001d08 <_printf_float+0xb4>
 8002058:	f108 0801 	add.w	r8, r8, #1
 800205c:	45d0      	cmp	r8, sl
 800205e:	dbf2      	blt.n	8002046 <_printf_float+0x3f2>
 8002060:	464b      	mov	r3, r9
 8002062:	f104 0250 	add.w	r2, r4, #80	@ 0x50
 8002066:	e6e0      	b.n	8001e2a <_printf_float+0x1d6>
 8002068:	f04f 0800 	mov.w	r8, #0
 800206c:	e7f6      	b.n	800205c <_printf_float+0x408>
 800206e:	2301      	movs	r3, #1
 8002070:	4642      	mov	r2, r8
 8002072:	e7e2      	b.n	800203a <_printf_float+0x3e6>
 8002074:	2301      	movs	r3, #1
 8002076:	f104 0219 	add.w	r2, r4, #25
 800207a:	4631      	mov	r1, r6
 800207c:	4628      	mov	r0, r5
 800207e:	47b8      	blx	r7
 8002080:	3001      	adds	r0, #1
 8002082:	f43f ae41 	beq.w	8001d08 <_printf_float+0xb4>
 8002086:	f108 0801 	add.w	r8, r8, #1
 800208a:	68e3      	ldr	r3, [r4, #12]
 800208c:	990d      	ldr	r1, [sp, #52]	@ 0x34
 800208e:	1a5b      	subs	r3, r3, r1
 8002090:	4543      	cmp	r3, r8
 8002092:	dcef      	bgt.n	8002074 <_printf_float+0x420>
 8002094:	e6fb      	b.n	8001e8e <_printf_float+0x23a>
 8002096:	f04f 0800 	mov.w	r8, #0
 800209a:	e7f6      	b.n	800208a <_printf_float+0x436>

Disassembly of section .text._printf_common:

0800209c <_printf_common>:
 800209c:	e92d 47f0 	stmdb	sp!, {r4, r5, r6, r7, r8, r9, sl, lr}
 80020a0:	4691      	mov	r9, r2
 80020a2:	4698      	mov	r8, r3
 80020a4:	688a      	ldr	r2, [r1, #8]
 80020a6:	690b      	ldr	r3, [r1, #16]
 80020a8:	9e08      	ldr	r6, [sp, #32]
 80020aa:	4293      	cmp	r3, r2
 80020ac:	bfb8      	it	lt
 80020ae:	4613      	movlt	r3, r2
 80020b0:	f8c9 3000 	str.w	r3, [r9]
 80020b4:	f891 2043 	ldrb.w	r2, [r1, #67]	@ 0x43
 80020b8:	4607      	mov	r7, r0
 80020ba:	460c      	mov	r4, r1
 80020bc:	b112      	cbz	r2, 80020c4 <_printf_common+0x28>
 80020be:	3301      	adds	r3, #1
 80020c0:	f8c9 3000 	str.w	r3, [r9]
 80020c4:	6823      	ldr	r3, [r4, #0]
 80020c6:	0699      	lsls	r1, r3, #26
 80020c8:	bf42      	ittt	mi
 80020ca:	f8d9 3000 	ldrmi.w	r3, [r9]
 80020ce:	3302      	addmi	r3, #2
 80020d0:	f8c9 3000 	strmi.w	r3, [r9]
 80020d4:	6825      	ldr	r5, [r4, #0]
 80020d6:	f015 0506 	ands.w	r5, r5, #6
 80020da:	d107      	bne.n	80020ec <_printf_common+0x50>
 80020dc:	f104 0a19 	add.w	sl, r4, #25
 80020e0:	68e3      	ldr	r3, [r4, #12]
 80020e2:	f8d9 2000 	ldr.w	r2, [r9]
 80020e6:	1a9b      	subs	r3, r3, r2
 80020e8:	42ab      	cmp	r3, r5
 80020ea:	dc29      	bgt.n	8002140 <_printf_common+0xa4>
 80020ec:	f894 3043 	ldrb.w	r3, [r4, #67]	@ 0x43
 80020f0:	6822      	ldr	r2, [r4, #0]
 80020f2:	3b00      	subs	r3, #0
 80020f4:	bf18      	it	ne
 80020f6:	2301      	movne	r3, #1
 80020f8:	0692      	lsls	r2, r2, #26
 80020fa:	d42e      	bmi.n	800215a <_printf_common+0xbe>
 80020fc:	f104 0243 	add.w	r2, r4, #67	@ 0x43
 8002100:	4641      	mov	r1, r8
 8002102:	4638      	mov	r0, r7
 8002104:	47b0      	blx	r6
 8002106:	3001      	adds	r0, #1
 8002108:	d021      	beq.n	800214e <_printf_common+0xb2>
 800210a:	6823      	ldr	r3, [r4, #0]
 800210c:	68a1      	ldr	r1, [r4, #8]
 800210e:	6922      	ldr	r2, [r4, #16]
 8002110:	f003 0306 	and.w	r3, r3, #6
 8002114:	2b04      	cmp	r3, #4
 8002116:	bf01      	itttt	eq
 8002118:	68e5      	ldreq	r5, [r4, #12]
 800211a:	f8d9 3000 	ldreq.w	r3, [r9]
 800211e:	1aed      	subeq	r5, r5, r3
 8002120:	ea25 75e5 	biceq.w	r5, r5, r5, asr #31
 8002124:	bf18      	it	ne
 8002126:	2500      	movne	r5, #0
 8002128:	1a8b      	subs	r3, r1, r2
 800212a:	442b      	add	r3, r5
 800212c:	4291      	cmp	r1, r2
 800212e:	bfc8      	it	gt
 8002130:	461d      	movgt	r5, r3
 8002132:	f04f 0900 	mov.w	r9, #0
 8002136:	341a      	adds	r4, #26
 8002138:	454d      	cmp	r5, r9
 800213a:	d11a      	bne.n	8002172 <_printf_common+0xd6>
 800213c:	2000      	movs	r0, #0
 800213e:	e008      	b.n	8002152 <_printf_common+0xb6>
 8002140:	2301      	movs	r3, #1
 8002142:	4652      	mov	r2, sl
 8002144:	4641      	mov	r1, r8
 8002146:	4638      	mov	r0, r7
 8002148:	47b0      	blx	r6
 800214a:	3001      	adds	r0, #1
 800214c:	d103      	bne.n	8002156 <_printf_common+0xba>
 800214e:	f04f 30ff 	mov.w	r0, #4294967295
 8002152:	e8bd 87f0 	ldmia.w	sp!, {r4, r5, r6, r7, r8, r9, sl, pc}
 8002156:	3501      	adds	r5, #1
 8002158:	e7c2      	b.n	80020e0 <_printf_common+0x44>
 800215a:	18e1      	adds	r1, r4, r3
 800215c:	1c5a      	adds	r2, r3, #1
 800215e:	2030      	movs	r0, #48	@ 0x30
 8002160:	f881 0043 	strb.w	r0, [r1, #67]	@ 0x43
 8002164:	4422      	add	r2, r4
 8002166:	f894 1045 	ldrb.w	r1, [r4, #69]	@ 0x45
 800216a:	f882 1043 	strb.w	r1, [r2, #67]	@ 0x43
 800216e:	3302      	adds	r3, #2
 8002170:	e7c4      	b.n	80020fc <_printf_common+0x60>
 8002172:	2301      	movs	r3, #1
 8002174:	4622      	mov	r2, r4
 8002176:	4641      	mov	r1, r8
 8002178:	4638      	mov	r0, r7
 800217a:	47b0      	blx	r6
 800217c:	3001      	adds	r0, #1
 800217e:	d0e6      	beq.n	800214e <_printf_common+0xb2>
 8002180:	f109 0901 	add.w	r9, r9, #1
 8002184:	e7d8      	b.n	8002138 <_printf_common+0x9c>

Disassembly of section .text._printf_i:

08002188 <_printf_i>:
 8002188:	e92d 43f0 	stmdb	sp!, {r4, r5, r6, r7, r8, r9, lr}
 800218c:	4698      	mov	r8, r3
 800218e:	7e0b      	ldrb	r3, [r1, #24]
 8002190:	b085      	sub	sp, #20
 8002192:	2b78      	cmp	r3, #120	@ 0x78
 8002194:	4617      	mov	r7, r2
 8002196:	4606      	mov	r6, r0
 8002198:	9a0c      	ldr	r2, [sp, #48]	@ 0x30
 800219a:	460c      	mov	r4, r1
 800219c:	d809      	bhi.n	80021b2 <_printf_i+0x2a>
 800219e:	2b62      	cmp	r3, #98	@ 0x62
 80021a0:	f101 0143 	add.w	r1, r1, #67	@ 0x43
 80021a4:	d808      	bhi.n	80021b8 <_printf_i+0x30>
 80021a6:	2b00      	cmp	r3, #0
 80021a8:	f000 80dc 	beq.w	8002364 <_printf_i+0x1dc>
 80021ac:	2b58      	cmp	r3, #88	@ 0x58
 80021ae:	f000 80bd 	beq.w	800232c <_printf_i+0x1a4>
 80021b2:	f104 0542 	add.w	r5, r4, #66	@ 0x42
 80021b6:	e039      	b.n	800222c <_printf_i+0xa4>
 80021b8:	f1a3 0063 	sub.w	r0, r3, #99	@ 0x63
 80021bc:	2815      	cmp	r0, #21
 80021be:	d8f8      	bhi.n	80021b2 <_printf_i+0x2a>
 80021c0:	a501      	add	r5, pc, #4	@ (adr r5, 80021c8 <_printf_i+0x40>)
 80021c2:	f855 f020 	ldr.w	pc, [r5, r0, lsl #2]
 80021c6:	bf00      	nop
 80021c8:	08002221 			@ <UNDEFINED> instruction: 08002221
 80021cc:	08002235 			@ <UNDEFINED> instruction: 08002235
 80021d0:	080021b3 			@ <UNDEFINED> instruction: 080021b3
 80021d4:	080021b3 			@ <UNDEFINED> instruction: 080021b3
 80021d8:	080021b3 			@ <UNDEFINED> instruction: 080021b3
 80021dc:	080021b3 			@ <UNDEFINED> instruction: 080021b3
 80021e0:	08002235 			@ <UNDEFINED> instruction: 08002235
 80021e4:	080021b3 			@ <UNDEFINED> instruction: 080021b3
 80021e8:	080021b3 			@ <UNDEFINED> instruction: 080021b3
 80021ec:	080021b3 			@ <UNDEFINED> instruction: 080021b3
 80021f0:	080021b3 			@ <UNDEFINED> instruction: 080021b3
 80021f4:	08002345 			@ <UNDEFINED> instruction: 08002345
 80021f8:	08002261 			@ <UNDEFINED> instruction: 08002261
 80021fc:	080022f3 			@ <UNDEFINED> instruction: 080022f3
 8002200:	080021b3 			@ <UNDEFINED> instruction: 080021b3
 8002204:	080021b3 			@ <UNDEFINED> instruction: 080021b3
 8002208:	0800236d 			@ <UNDEFINED> instruction: 0800236d
 800220c:	080021b3 			@ <UNDEFINED> instruction: 080021b3
 8002210:	08002261 			@ <UNDEFINED> instruction: 08002261
 8002214:	080021b3 			@ <UNDEFINED> instruction: 080021b3
 8002218:	080021b3 			@ <UNDEFINED> instruction: 080021b3
 800221c:	080022fb 			@ <UNDEFINED> instruction: 080022fb
 8002220:	6813      	ldr	r3, [r2, #0]
 8002222:	1d19      	adds	r1, r3, #4
 8002224:	681b      	ldr	r3, [r3, #0]
 8002226:	6011      	str	r1, [r2, #0]
 8002228:	f104 0542 	add.w	r5, r4, #66	@ 0x42
 800222c:	f884 3042 	strb.w	r3, [r4, #66]	@ 0x42
 8002230:	2301      	movs	r3, #1
 8002232:	e0a8      	b.n	8002386 <_printf_i+0x1fe>
 8002234:	6813      	ldr	r3, [r2, #0]
 8002236:	6825      	ldr	r5, [r4, #0]
 8002238:	1d18      	adds	r0, r3, #4
 800223a:	6010      	str	r0, [r2, #0]
 800223c:	0628      	lsls	r0, r5, #24
 800223e:	d501      	bpl.n	8002244 <_printf_i+0xbc>
 8002240:	681b      	ldr	r3, [r3, #0]
 8002242:	e003      	b.n	800224c <_printf_i+0xc4>
 8002244:	066a      	lsls	r2, r5, #25
 8002246:	d5fb      	bpl.n	8002240 <_printf_i+0xb8>
 8002248:	f9b3 3000 	ldrsh.w	r3, [r3]
 800224c:	2b00      	cmp	r3, #0
 800224e:	da03      	bge.n	8002258 <_printf_i+0xd0>
 8002250:	222d      	movs	r2, #45	@ 0x2d
 8002252:	425b      	negs	r3, r3
 8002254:	f884 2043 	strb.w	r2, [r4, #67]	@ 0x43
 8002258:	f8df c178 	ldr.w	ip, [pc, #376]	@ 80023d4 <_printf_i+0x24c>
 800225c:	220a      	movs	r2, #10
 800225e:	e013      	b.n	8002288 <_printf_i+0x100>
 8002260:	6825      	ldr	r5, [r4, #0]
 8002262:	6810      	ldr	r0, [r2, #0]
 8002264:	f015 0f80 	tst.w	r5, #128	@ 0x80
 8002268:	f850 3b04 	ldr.w	r3, [r0], #4
 800226c:	d102      	bne.n	8002274 <_printf_i+0xec>
 800226e:	066d      	lsls	r5, r5, #25
 8002270:	bf48      	it	mi
 8002272:	b29b      	uxthmi	r3, r3
 8002274:	6010      	str	r0, [r2, #0]
 8002276:	7e22      	ldrb	r2, [r4, #24]
 8002278:	f8df c158 	ldr.w	ip, [pc, #344]	@ 80023d4 <_printf_i+0x24c>
 800227c:	2a6f      	cmp	r2, #111	@ 0x6f
 800227e:	d15d      	bne.n	800233c <_printf_i+0x1b4>
 8002280:	2208      	movs	r2, #8
 8002282:	2000      	movs	r0, #0
 8002284:	f884 0043 	strb.w	r0, [r4, #67]	@ 0x43
 8002288:	6865      	ldr	r5, [r4, #4]
 800228a:	60a5      	str	r5, [r4, #8]
 800228c:	2d00      	cmp	r5, #0
 800228e:	db05      	blt.n	800229c <_printf_i+0x114>
 8002290:	6820      	ldr	r0, [r4, #0]
 8002292:	431d      	orrs	r5, r3
 8002294:	f020 0004 	bic.w	r0, r0, #4
 8002298:	6020      	str	r0, [r4, #0]
 800229a:	d051      	beq.n	8002340 <_printf_i+0x1b8>
 800229c:	460d      	mov	r5, r1
 800229e:	fbb3 f0f2 	udiv	r0, r3, r2
 80022a2:	fb02 3e10 	mls	lr, r2, r0, r3
 80022a6:	429a      	cmp	r2, r3
 80022a8:	f81c e00e 	ldrb.w	lr, [ip, lr]
 80022ac:	f805 ed01 	strb.w	lr, [r5, #-1]!
 80022b0:	4603      	mov	r3, r0
 80022b2:	d9f4      	bls.n	800229e <_printf_i+0x116>
 80022b4:	2a08      	cmp	r2, #8
 80022b6:	d10b      	bne.n	80022d0 <_printf_i+0x148>
 80022b8:	6823      	ldr	r3, [r4, #0]
 80022ba:	07da      	lsls	r2, r3, #31
 80022bc:	d508      	bpl.n	80022d0 <_printf_i+0x148>
 80022be:	6923      	ldr	r3, [r4, #16]
 80022c0:	6862      	ldr	r2, [r4, #4]
 80022c2:	429a      	cmp	r2, r3
 80022c4:	bfde      	ittt	le
 80022c6:	2330      	movle	r3, #48	@ 0x30
 80022c8:	f805 3c01 	strble.w	r3, [r5, #-1]
 80022cc:	f105 35ff 	addle.w	r5, r5, #4294967295
 80022d0:	1b49      	subs	r1, r1, r5
 80022d2:	6121      	str	r1, [r4, #16]
 80022d4:	f8cd 8000 	str.w	r8, [sp]
 80022d8:	463b      	mov	r3, r7
 80022da:	aa03      	add	r2, sp, #12
 80022dc:	4621      	mov	r1, r4
 80022de:	4630      	mov	r0, r6
 80022e0:	f7ff fedc 	bl	800209c <_printf_common>
 80022e4:	3001      	adds	r0, #1
 80022e6:	d153      	bne.n	8002390 <_printf_i+0x208>
 80022e8:	f04f 30ff 	mov.w	r0, #4294967295
 80022ec:	b005      	add	sp, #20
 80022ee:	e8bd 83f0 	ldmia.w	sp!, {r4, r5, r6, r7, r8, r9, pc}
 80022f2:	6823      	ldr	r3, [r4, #0]
 80022f4:	f043 0320 	orr.w	r3, r3, #32
 80022f8:	6023      	str	r3, [r4, #0]
 80022fa:	f8df c0dc 	ldr.w	ip, [pc, #220]	@ 80023d8 <_printf_i+0x250>
 80022fe:	2378      	movs	r3, #120	@ 0x78
 8002300:	f884 3045 	strb.w	r3, [r4, #69]	@ 0x45
 8002304:	6820      	ldr	r0, [r4, #0]
 8002306:	6815      	ldr	r5, [r2, #0]
 8002308:	f010 0f80 	tst.w	r0, #128	@ 0x80
 800230c:	f855 3b04 	ldr.w	r3, [r5], #4
 8002310:	d103      	bne.n	800231a <_printf_i+0x192>
 8002312:	f010 0f40 	tst.w	r0, #64	@ 0x40
 8002316:	bf18      	it	ne
 8002318:	b29b      	uxthne	r3, r3
 800231a:	6015      	str	r5, [r2, #0]
 800231c:	07c5      	lsls	r5, r0, #31
 800231e:	bf44      	itt	mi
 8002320:	f040 0020 	orrmi.w	r0, r0, #32
 8002324:	6020      	strmi	r0, [r4, #0]
 8002326:	b123      	cbz	r3, 8002332 <_printf_i+0x1aa>
 8002328:	2210      	movs	r2, #16
 800232a:	e7aa      	b.n	8002282 <_printf_i+0xfa>
 800232c:	f8df c0a4 	ldr.w	ip, [pc, #164]	@ 80023d4 <_printf_i+0x24c>
 8002330:	e7e6      	b.n	8002300 <_printf_i+0x178>
 8002332:	6822      	ldr	r2, [r4, #0]
 8002334:	f022 0220 	bic.w	r2, r2, #32
 8002338:	6022      	str	r2, [r4, #0]
 800233a:	e7f5      	b.n	8002328 <_printf_i+0x1a0>
 800233c:	220a      	movs	r2, #10
 800233e:	e7a0      	b.n	8002282 <_printf_i+0xfa>
 8002340:	460d      	mov	r5, r1
 8002342:	e7b7      	b.n	80022b4 <_printf_i+0x12c>
 8002344:	6813      	ldr	r3, [r2, #0]
 8002346:	f8d4 c000 	ldr.w	ip, [r4]
 800234a:	6960      	ldr	r0, [r4, #20]
 800234c:	1d1d      	adds	r5, r3, #4
 800234e:	6015      	str	r5, [r2, #0]
 8002350:	f01c 0f80 	tst.w	ip, #128	@ 0x80
 8002354:	681b      	ldr	r3, [r3, #0]
 8002356:	d001      	beq.n	800235c <_printf_i+0x1d4>
 8002358:	6018      	str	r0, [r3, #0]
 800235a:	e003      	b.n	8002364 <_printf_i+0x1dc>
 800235c:	f01c 0f40 	tst.w	ip, #64	@ 0x40
 8002360:	d0fa      	beq.n	8002358 <_printf_i+0x1d0>
 8002362:	8018      	strh	r0, [r3, #0]
 8002364:	2300      	movs	r3, #0
 8002366:	6123      	str	r3, [r4, #16]
 8002368:	460d      	mov	r5, r1
 800236a:	e7b3      	b.n	80022d4 <_printf_i+0x14c>
 800236c:	6813      	ldr	r3, [r2, #0]
 800236e:	1d19      	adds	r1, r3, #4
 8002370:	6011      	str	r1, [r2, #0]
 8002372:	681d      	ldr	r5, [r3, #0]
 8002374:	6862      	ldr	r2, [r4, #4]
 8002376:	2100      	movs	r1, #0
 8002378:	4628      	mov	r0, r5
 800237a:	f7fe fd91 	bl	8000ea0 <memchr>
 800237e:	b108      	cbz	r0, 8002384 <_printf_i+0x1fc>
 8002380:	1b40      	subs	r0, r0, r5
 8002382:	6060      	str	r0, [r4, #4]
 8002384:	6863      	ldr	r3, [r4, #4]
 8002386:	6123      	str	r3, [r4, #16]
 8002388:	2300      	movs	r3, #0
 800238a:	f884 3043 	strb.w	r3, [r4, #67]	@ 0x43
 800238e:	e7a1      	b.n	80022d4 <_printf_i+0x14c>
 8002390:	6923      	ldr	r3, [r4, #16]
 8002392:	462a      	mov	r2, r5
 8002394:	4639      	mov	r1, r7
 8002396:	4630      	mov	r0, r6
 8002398:	47c0      	blx	r8
 800239a:	3001      	adds	r0, #1
 800239c:	d0a4      	beq.n	80022e8 <_printf_i+0x160>
 800239e:	6823      	ldr	r3, [r4, #0]
 80023a0:	079b      	lsls	r3, r3, #30
 80023a2:	d414      	bmi.n	80023ce <_printf_i+0x246>
 80023a4:	68e0      	ldr	r0, [r4, #12]
 80023a6:	9b03      	ldr	r3, [sp, #12]
 80023a8:	4298      	cmp	r0, r3
 80023aa:	bfb8      	it	lt
 80023ac:	4618      	movlt	r0, r3
 80023ae:	e79d      	b.n	80022ec <_printf_i+0x164>
 80023b0:	2301      	movs	r3, #1
 80023b2:	f104 0219 	add.w	r2, r4, #25
 80023b6:	4639      	mov	r1, r7
 80023b8:	4630      	mov	r0, r6
 80023ba:	47c0      	blx	r8
 80023bc:	3001      	adds	r0, #1
 80023be:	d093      	beq.n	80022e8 <_printf_i+0x160>
 80023c0:	3501      	adds	r5, #1
 80023c2:	68e3      	ldr	r3, [r4, #12]
 80023c4:	9903      	ldr	r1, [sp, #12]
 80023c6:	1a5b      	subs	r3, r3, r1
 80023c8:	42ab      	cmp	r3, r5
 80023ca:	dcf1      	bgt.n	80023b0 <_printf_i+0x228>
 80023cc:	e7ea      	b.n	80023a4 <_printf_i+0x21c>
 80023ce:	2500      	movs	r5, #0
 80023d0:	e7f7      	b.n	80023c2 <_printf_i+0x23a>
 80023d2:	bf00      	nop
 80023d4:	080053de 			@ <UNDEFINED> instruction: 080053de
 80023d8:	080053ef 			@ <UNDEFINED> instruction: 080053ef

Disassembly of section .text._printf_r:

080023dc <_iprintf_r>:
 80023dc:	b40e      	push	{r1, r2, r3}
 80023de:	b503      	push	{r0, r1, lr}
 80023e0:	ab03      	add	r3, sp, #12
 80023e2:	6881      	ldr	r1, [r0, #8]
 80023e4:	f853 2b04 	ldr.w	r2, [r3], #4
 80023e8:	9301      	str	r3, [sp, #4]
 80023ea:	f001 ff59 	bl	80042a0 <_vfiprintf_r>
 80023ee:	b002      	add	sp, #8
 80023f0:	f85d eb04 	ldr.w	lr, [sp], #4
 80023f4:	b003      	add	sp, #12
 80023f6:	4770      	bx	lr

Disassembly of section .text.printf:

080023f8 <iprintf>:
 80023f8:	b40f      	push	{r0, r1, r2, r3}
 80023fa:	b507      	push	{r0, r1, r2, lr}
 80023fc:	4906      	ldr	r1, [pc, #24]	@ (8002418 <iprintf+0x20>)
 80023fe:	ab04      	add	r3, sp, #16
 8002400:	6808      	ldr	r0, [r1, #0]
 8002402:	f853 2b04 	ldr.w	r2, [r3], #4
 8002406:	6881      	ldr	r1, [r0, #8]
 8002408:	9301      	str	r3, [sp, #4]
 800240a:	f001 ff49 	bl	80042a0 <_vfiprintf_r>
 800240e:	b003      	add	sp, #12
 8002410:	f85d eb04 	ldr.w	lr, [sp], #4
 8002414:	b004      	add	sp, #16
 8002416:	4770      	bx	lr
 8002418:	20000004 			@ <UNDEFINED> instruction: 20000004

Disassembly of section .text.setvbuf:

0800241c <setvbuf>:
 800241c:	e92d 43f7 	stmdb	sp!, {r0, r1, r2, r4, r5, r6, r7, r8, r9, lr}
 8002420:	461d      	mov	r5, r3
 8002422:	4b57      	ldr	r3, [pc, #348]	@ (8002580 <setvbuf+0x164>)
 8002424:	681f      	ldr	r7, [r3, #0]
 8002426:	4604      	mov	r4, r0
 8002428:	460e      	mov	r6, r1
 800242a:	4690      	mov	r8, r2
 800242c:	b127      	cbz	r7, 8002438 <setvbuf+0x1c>
 800242e:	6a3b      	ldr	r3, [r7, #32]
 8002430:	b913      	cbnz	r3, 8002438 <setvbuf+0x1c>
 8002432:	4638      	mov	r0, r7
 8002434:	f002 fa06 	bl	8004844 <__sinit>
 8002438:	f1b8 0f02 	cmp.w	r8, #2
 800243c:	d006      	beq.n	800244c <setvbuf+0x30>
 800243e:	f1b8 0f01 	cmp.w	r8, #1
 8002442:	f200 809a 	bhi.w	800257a <setvbuf+0x15e>
 8002446:	2d00      	cmp	r5, #0
 8002448:	f2c0 8097 	blt.w	800257a <setvbuf+0x15e>
 800244c:	6e63      	ldr	r3, [r4, #100]	@ 0x64
 800244e:	07d9      	lsls	r1, r3, #31
 8002450:	d405      	bmi.n	800245e <setvbuf+0x42>
 8002452:	89a3      	ldrh	r3, [r4, #12]
 8002454:	059a      	lsls	r2, r3, #22
 8002456:	d402      	bmi.n	800245e <setvbuf+0x42>
 8002458:	6da0      	ldr	r0, [r4, #88]	@ 0x58
 800245a:	f000 f8c8 	bl	80025ee <__retarget_lock_acquire_recursive>
 800245e:	4621      	mov	r1, r4
 8002460:	4638      	mov	r0, r7
 8002462:	f002 f8bb 	bl	80045dc <_fflush_r>
 8002466:	6b61      	ldr	r1, [r4, #52]	@ 0x34
 8002468:	b141      	cbz	r1, 800247c <setvbuf+0x60>
 800246a:	f104 0344 	add.w	r3, r4, #68	@ 0x44
 800246e:	4299      	cmp	r1, r3
 8002470:	d002      	beq.n	8002478 <setvbuf+0x5c>
 8002472:	4638      	mov	r0, r7
 8002474:	f000 ff22 	bl	80032bc <_free_r>
 8002478:	2300      	movs	r3, #0
 800247a:	6363      	str	r3, [r4, #52]	@ 0x34
 800247c:	2300      	movs	r3, #0
 800247e:	61a3      	str	r3, [r4, #24]
 8002480:	6063      	str	r3, [r4, #4]
 8002482:	89a3      	ldrh	r3, [r4, #12]
 8002484:	061b      	lsls	r3, r3, #24
 8002486:	d503      	bpl.n	8002490 <setvbuf+0x74>
 8002488:	6921      	ldr	r1, [r4, #16]
 800248a:	4638      	mov	r0, r7
 800248c:	f000 ff16 	bl	80032bc <_free_r>
 8002490:	89a3      	ldrh	r3, [r4, #12]
 8002492:	f423 634a 	bic.w	r3, r3, #3232	@ 0xca0
 8002496:	f023 0303 	bic.w	r3, r3, #3
 800249a:	f1b8 0f02 	cmp.w	r8, #2
 800249e:	81a3      	strh	r3, [r4, #12]
 80024a0:	d061      	beq.n	8002566 <setvbuf+0x14a>
 80024a2:	ab01      	add	r3, sp, #4
 80024a4:	466a      	mov	r2, sp
 80024a6:	4621      	mov	r1, r4
 80024a8:	4638      	mov	r0, r7
 80024aa:	f002 fb6c 	bl	8004b86 <__swhatbuf_r>
 80024ae:	89a3      	ldrh	r3, [r4, #12]
 80024b0:	4318      	orrs	r0, r3
 80024b2:	81a0      	strh	r0, [r4, #12]
 80024b4:	bb2d      	cbnz	r5, 8002502 <setvbuf+0xe6>
 80024b6:	9d00      	ldr	r5, [sp, #0]
 80024b8:	4628      	mov	r0, r5
 80024ba:	f000 ff4b 	bl	8003354 <malloc>
 80024be:	4606      	mov	r6, r0
 80024c0:	2800      	cmp	r0, #0
 80024c2:	d152      	bne.n	800256a <setvbuf+0x14e>
 80024c4:	f8dd 9000 	ldr.w	r9, [sp]
 80024c8:	45a9      	cmp	r9, r5
 80024ca:	d140      	bne.n	800254e <setvbuf+0x132>
 80024cc:	f04f 35ff 	mov.w	r5, #4294967295
 80024d0:	f9b4 300c 	ldrsh.w	r3, [r4, #12]
 80024d4:	f043 0202 	orr.w	r2, r3, #2
 80024d8:	81a2      	strh	r2, [r4, #12]
 80024da:	2200      	movs	r2, #0
 80024dc:	60a2      	str	r2, [r4, #8]
 80024de:	f104 0247 	add.w	r2, r4, #71	@ 0x47
 80024e2:	6022      	str	r2, [r4, #0]
 80024e4:	6122      	str	r2, [r4, #16]
 80024e6:	2201      	movs	r2, #1
 80024e8:	6162      	str	r2, [r4, #20]
 80024ea:	6e62      	ldr	r2, [r4, #100]	@ 0x64
 80024ec:	07d6      	lsls	r6, r2, #31
 80024ee:	d404      	bmi.n	80024fa <setvbuf+0xde>
 80024f0:	0598      	lsls	r0, r3, #22
 80024f2:	d402      	bmi.n	80024fa <setvbuf+0xde>
 80024f4:	6da0      	ldr	r0, [r4, #88]	@ 0x58
 80024f6:	f000 f880 	bl	80025fa <__retarget_lock_release_recursive>
 80024fa:	4628      	mov	r0, r5
 80024fc:	b003      	add	sp, #12
 80024fe:	e8bd 83f0 	ldmia.w	sp!, {r4, r5, r6, r7, r8, r9, pc}
 8002502:	2e00      	cmp	r6, #0
 8002504:	d0d8      	beq.n	80024b8 <setvbuf+0x9c>
 8002506:	6a3b      	ldr	r3, [r7, #32]
 8002508:	b913      	cbnz	r3, 8002510 <setvbuf+0xf4>
 800250a:	4638      	mov	r0, r7
 800250c:	f002 f99a 	bl	8004844 <__sinit>
 8002510:	f1b8 0f01 	cmp.w	r8, #1
 8002514:	bf08      	it	eq
 8002516:	89a3      	ldrheq	r3, [r4, #12]
 8002518:	6026      	str	r6, [r4, #0]
 800251a:	bf04      	itt	eq
 800251c:	f043 0301 	orreq.w	r3, r3, #1
 8002520:	81a3      	strheq	r3, [r4, #12]
 8002522:	f9b4 300c 	ldrsh.w	r3, [r4, #12]
 8002526:	f013 0208 	ands.w	r2, r3, #8
 800252a:	e9c4 6504 	strd	r6, r5, [r4, #16]
 800252e:	d01e      	beq.n	800256e <setvbuf+0x152>
 8002530:	07d9      	lsls	r1, r3, #31
 8002532:	bf41      	itttt	mi
 8002534:	2200      	movmi	r2, #0
 8002536:	426d      	negmi	r5, r5
 8002538:	60a2      	strmi	r2, [r4, #8]
 800253a:	61a5      	strmi	r5, [r4, #24]
 800253c:	bf58      	it	pl
 800253e:	60a5      	strpl	r5, [r4, #8]
 8002540:	6e62      	ldr	r2, [r4, #100]	@ 0x64
 8002542:	07d2      	lsls	r2, r2, #31
 8002544:	d401      	bmi.n	800254a <setvbuf+0x12e>
 8002546:	059b      	lsls	r3, r3, #22
 8002548:	d513      	bpl.n	8002572 <setvbuf+0x156>
 800254a:	2500      	movs	r5, #0
 800254c:	e7d5      	b.n	80024fa <setvbuf+0xde>
 800254e:	4648      	mov	r0, r9
 8002550:	f000 ff00 	bl	8003354 <malloc>
 8002554:	4606      	mov	r6, r0
 8002556:	2800      	cmp	r0, #0
 8002558:	d0b8      	beq.n	80024cc <setvbuf+0xb0>
 800255a:	89a3      	ldrh	r3, [r4, #12]
 800255c:	f043 0380 	orr.w	r3, r3, #128	@ 0x80
 8002560:	81a3      	strh	r3, [r4, #12]
 8002562:	464d      	mov	r5, r9
 8002564:	e7cf      	b.n	8002506 <setvbuf+0xea>
 8002566:	2500      	movs	r5, #0
 8002568:	e7b2      	b.n	80024d0 <setvbuf+0xb4>
 800256a:	46a9      	mov	r9, r5
 800256c:	e7f5      	b.n	800255a <setvbuf+0x13e>
 800256e:	60a2      	str	r2, [r4, #8]
 8002570:	e7e6      	b.n	8002540 <setvbuf+0x124>
 8002572:	6da0      	ldr	r0, [r4, #88]	@ 0x58
 8002574:	f000 f841 	bl	80025fa <__retarget_lock_release_recursive>
 8002578:	e7e7      	b.n	800254a <setvbuf+0x12e>
 800257a:	f04f 35ff 	mov.w	r5, #4294967295
 800257e:	e7bc      	b.n	80024fa <setvbuf+0xde>
 8002580:	20000004 			@ <UNDEFINED> instruction: 20000004

Disassembly of section .text._vsprintf_r:

08002584 <_vsiprintf_r>:
 8002584:	b510      	push	{r4, lr}
 8002586:	b09a      	sub	sp, #104	@ 0x68
 8002588:	2400      	movs	r4, #0
 800258a:	9100      	str	r1, [sp, #0]
 800258c:	9104      	str	r1, [sp, #16]
 800258e:	f06f 4100 	mvn.w	r1, #2147483648	@ 0x80000000
 8002592:	9105      	str	r1, [sp, #20]
 8002594:	9102      	str	r1, [sp, #8]
 8002596:	4905      	ldr	r1, [pc, #20]	@ (80025ac <_vsiprintf_r+0x28>)
 8002598:	9103      	str	r1, [sp, #12]
 800259a:	4669      	mov	r1, sp
 800259c:	9419      	str	r4, [sp, #100]	@ 0x64
 800259e:	f001 fd53 	bl	8004048 <_svfiprintf_r>
 80025a2:	9b00      	ldr	r3, [sp, #0]
 80025a4:	701c      	strb	r4, [r3, #0]
 80025a6:	b01a      	add	sp, #104	@ 0x68
 80025a8:	bd10      	pop	{r4, pc}
 80025aa:	bf00      	nop
 80025ac:	ffff0208 			@ <UNDEFINED> instruction: ffff0208

Disassembly of section .text.vsprintf:

080025b0 <vsiprintf>:
 80025b0:	4613      	mov	r3, r2
 80025b2:	460a      	mov	r2, r1
 80025b4:	4601      	mov	r1, r0
 80025b6:	4802      	ldr	r0, [pc, #8]	@ (80025c0 <vsiprintf+0x10>)
 80025b8:	6800      	ldr	r0, [r0, #0]
 80025ba:	f7ff bfe3 	b.w	8002584 <_vsiprintf_r>
 80025be:	bf00      	nop
 80025c0:	20000004 			@ <UNDEFINED> instruction: 20000004

Disassembly of section .text.__localeconv_l:

080025c4 <__localeconv_l>:
 80025c4:	30f0      	adds	r0, #240	@ 0xf0
 80025c6:	4770      	bx	lr

Disassembly of section .text._localeconv_r:

080025c8 <_localeconv_r>:
 80025c8:	4800      	ldr	r0, [pc, #0]	@ (80025cc <_localeconv_r+0x4>)
 80025ca:	4770      	bx	lr
 80025cc:	20000150 			@ <UNDEFINED> instruction: 20000150

Disassembly of section .text.localeconv:

080025d0 <localeconv>:
 80025d0:	4800      	ldr	r0, [pc, #0]	@ (80025d4 <localeconv+0x4>)
 80025d2:	4770      	bx	lr
 80025d4:	20000150 			@ <UNDEFINED> instruction: 20000150

Disassembly of section .text.__errno:

080025d8 <__errno>:
 80025d8:	4b01      	ldr	r3, [pc, #4]	@ (80025e0 <__errno+0x8>)
 80025da:	6818      	ldr	r0, [r3, #0]
 80025dc:	4770      	bx	lr
 80025de:	bf00      	nop
 80025e0:	20000004 			@ <UNDEFINED> instruction: 20000004

Disassembly of section .text.__retarget_lock_init:

080025e4 <__retarget_lock_init>:
 80025e4:	4770      	bx	lr

Disassembly of section .text.__retarget_lock_init_recursive:

080025e6 <__retarget_lock_init_recursive>:
 80025e6:	4770      	bx	lr

Disassembly of section .text.__retarget_lock_close:

080025e8 <__retarget_lock_close>:
 80025e8:	4770      	bx	lr

Disassembly of section .text.__retarget_lock_close_recursive:

080025ea <__retarget_lock_close_recursive>:
 80025ea:	4770      	bx	lr

Disassembly of section .text.__retarget_lock_acquire:

080025ec <__retarget_lock_acquire>:
 80025ec:	4770      	bx	lr

Disassembly of section .text.__retarget_lock_acquire_recursive:

080025ee <__retarget_lock_acquire_recursive>:
 80025ee:	4770      	bx	lr

Disassembly of section .text.__retarget_lock_try_acquire:

080025f0 <__retarget_lock_try_acquire>:
 80025f0:	2001      	movs	r0, #1
 80025f2:	4770      	bx	lr

Disassembly of section .text.__retarget_lock_try_acquire_recursive:

080025f4 <__retarget_lock_try_acquire_recursive>:
 80025f4:	2001      	movs	r0, #1
 80025f6:	4770      	bx	lr

Disassembly of section .text.__retarget_lock_release:

080025f8 <__retarget_lock_release>:
 80025f8:	4770      	bx	lr

Disassembly of section .text.__retarget_lock_release_recursive:

080025fa <__retarget_lock_release_recursive>:
 80025fa:	4770      	bx	lr

Disassembly of section .text.quorem:

080025fc <quorem>:
 80025fc:	e92d 4ff7 	stmdb	sp!, {r0, r1, r2, r4, r5, r6, r7, r8, r9, sl, fp, lr}
 8002600:	6903      	ldr	r3, [r0, #16]
 8002602:	690c      	ldr	r4, [r1, #16]
 8002604:	42a3      	cmp	r3, r4
 8002606:	4680      	mov	r8, r0
 8002608:	db7e      	blt.n	8002708 <quorem+0x10c>
 800260a:	3c01      	subs	r4, #1
 800260c:	f101 0714 	add.w	r7, r1, #20
 8002610:	00a3      	lsls	r3, r4, #2
 8002612:	f100 0514 	add.w	r5, r0, #20
 8002616:	9300      	str	r3, [sp, #0]
 8002618:	eb05 0384 	add.w	r3, r5, r4, lsl #2
 800261c:	9301      	str	r3, [sp, #4]
 800261e:	f857 3024 	ldr.w	r3, [r7, r4, lsl #2]
 8002622:	f855 2024 	ldr.w	r2, [r5, r4, lsl #2]
 8002626:	3301      	adds	r3, #1
 8002628:	429a      	cmp	r2, r3
 800262a:	eb07 0984 	add.w	r9, r7, r4, lsl #2
 800262e:	fbb2 f6f3 	udiv	r6, r2, r3
 8002632:	d32e      	bcc.n	8002692 <quorem+0x96>
 8002634:	f04f 0a00 	mov.w	sl, #0
 8002638:	46bc      	mov	ip, r7
 800263a:	46ae      	mov	lr, r5
 800263c:	46d3      	mov	fp, sl
 800263e:	f85c 3b04 	ldr.w	r3, [ip], #4
 8002642:	b298      	uxth	r0, r3
 8002644:	fb06 a000 	mla	r0, r6, r0, sl
 8002648:	0c02      	lsrs	r2, r0, #16
 800264a:	0c1b      	lsrs	r3, r3, #16
 800264c:	fb06 2303 	mla	r3, r6, r3, r2
 8002650:	f8de 2000 	ldr.w	r2, [lr]
 8002654:	b280      	uxth	r0, r0
 8002656:	b292      	uxth	r2, r2
 8002658:	1a12      	subs	r2, r2, r0
 800265a:	445a      	add	r2, fp
 800265c:	f8de 0000 	ldr.w	r0, [lr]
 8002660:	ea4f 4a13 	mov.w	sl, r3, lsr #16
 8002664:	b29b      	uxth	r3, r3
 8002666:	ebc3 4322 	rsb	r3, r3, r2, asr #16
 800266a:	eb03 4310 	add.w	r3, r3, r0, lsr #16
 800266e:	b292      	uxth	r2, r2
 8002670:	ea42 4203 	orr.w	r2, r2, r3, lsl #16
 8002674:	45e1      	cmp	r9, ip
 8002676:	f84e 2b04 	str.w	r2, [lr], #4
 800267a:	ea4f 4b23 	mov.w	fp, r3, asr #16
 800267e:	d2de      	bcs.n	800263e <quorem+0x42>
 8002680:	9b00      	ldr	r3, [sp, #0]
 8002682:	58eb      	ldr	r3, [r5, r3]
 8002684:	b92b      	cbnz	r3, 8002692 <quorem+0x96>
 8002686:	9b01      	ldr	r3, [sp, #4]
 8002688:	1f1a      	subs	r2, r3, #4
 800268a:	4295      	cmp	r5, r2
 800268c:	d330      	bcc.n	80026f0 <quorem+0xf4>
 800268e:	f8c8 4010 	str.w	r4, [r8, #16]
 8002692:	4640      	mov	r0, r8
 8002694:	f001 f9ee 	bl	8003a74 <__mcmp>
 8002698:	2800      	cmp	r0, #0
 800269a:	db25      	blt.n	80026e8 <quorem+0xec>
 800269c:	3601      	adds	r6, #1
 800269e:	4629      	mov	r1, r5
 80026a0:	2000      	movs	r0, #0
 80026a2:	f857 2b04 	ldr.w	r2, [r7], #4
 80026a6:	f8d1 c000 	ldr.w	ip, [r1]
 80026aa:	fa1f fe82 	uxth.w	lr, r2
 80026ae:	fa1f f38c 	uxth.w	r3, ip
 80026b2:	eba3 030e 	sub.w	r3, r3, lr
 80026b6:	4403      	add	r3, r0
 80026b8:	0c12      	lsrs	r2, r2, #16
 80026ba:	ebc2 4223 	rsb	r2, r2, r3, asr #16
 80026be:	eb02 421c 	add.w	r2, r2, ip, lsr #16
 80026c2:	b29b      	uxth	r3, r3
 80026c4:	ea43 4302 	orr.w	r3, r3, r2, lsl #16
 80026c8:	45b9      	cmp	r9, r7
 80026ca:	f841 3b04 	str.w	r3, [r1], #4
 80026ce:	ea4f 4022 	mov.w	r0, r2, asr #16
 80026d2:	d2e6      	bcs.n	80026a2 <quorem+0xa6>
 80026d4:	f855 2024 	ldr.w	r2, [r5, r4, lsl #2]
 80026d8:	eb05 0384 	add.w	r3, r5, r4, lsl #2
 80026dc:	b922      	cbnz	r2, 80026e8 <quorem+0xec>
 80026de:	3b04      	subs	r3, #4
 80026e0:	429d      	cmp	r5, r3
 80026e2:	d30b      	bcc.n	80026fc <quorem+0x100>
 80026e4:	f8c8 4010 	str.w	r4, [r8, #16]
 80026e8:	4630      	mov	r0, r6
 80026ea:	b003      	add	sp, #12
 80026ec:	e8bd 8ff0 	ldmia.w	sp!, {r4, r5, r6, r7, r8, r9, sl, fp, pc}
 80026f0:	6813      	ldr	r3, [r2, #0]
 80026f2:	2b00      	cmp	r3, #0
 80026f4:	d1cb      	bne.n	800268e <quorem+0x92>
 80026f6:	3a04      	subs	r2, #4
 80026f8:	3c01      	subs	r4, #1
 80026fa:	e7c6      	b.n	800268a <quorem+0x8e>
 80026fc:	681a      	ldr	r2, [r3, #0]
 80026fe:	2a00      	cmp	r2, #0
 8002700:	d1f0      	bne.n	80026e4 <quorem+0xe8>
 8002702:	3b04      	subs	r3, #4
 8002704:	3c01      	subs	r4, #1
 8002706:	e7eb      	b.n	80026e0 <quorem+0xe4>
 8002708:	2000      	movs	r0, #0
 800270a:	e7ee      	b.n	80026ea <quorem+0xee>

Disassembly of section .text._dtoa_r:

08002710 <_dtoa_r>:
 8002710:	e92d 4ff0 	stmdb	sp!, {r4, r5, r6, r7, r8, r9, sl, fp, lr}
 8002714:	b099      	sub	sp, #100	@ 0x64
 8002716:	ed8d 0b0e 	vstr	d0, [sp, #56]	@ 0x38
 800271a:	920c      	str	r2, [sp, #48]	@ 0x30
 800271c:	69c2      	ldr	r2, [r0, #28]
 800271e:	9c22      	ldr	r4, [sp, #136]	@ 0x88
 8002720:	910a      	str	r1, [sp, #40]	@ 0x28
 8002722:	ec57 6b10 	vmov	r6, r7, d0
 8002726:	4681      	mov	r9, r0
 8002728:	9313      	str	r3, [sp, #76]	@ 0x4c
 800272a:	b982      	cbnz	r2, 800274e <_dtoa_r+0x3e>
 800272c:	2010      	movs	r0, #16
 800272e:	f000 fe11 	bl	8003354 <malloc>
 8002732:	4602      	mov	r2, r0
 8002734:	f8c9 001c 	str.w	r0, [r9, #28]
 8002738:	b920      	cbnz	r0, 8002744 <_dtoa_r+0x34>
 800273a:	4ba9      	ldr	r3, [pc, #676]	@ (80029e0 <_dtoa_r+0x2d0>)
 800273c:	21ef      	movs	r1, #239	@ 0xef
 800273e:	48a9      	ldr	r0, [pc, #676]	@ (80029e4 <_dtoa_r+0x2d4>)
 8002740:	f002 fc90 	bl	8005064 <__assert_func>
 8002744:	2300      	movs	r3, #0
 8002746:	e9c0 3301 	strd	r3, r3, [r0, #4]
 800274a:	6003      	str	r3, [r0, #0]
 800274c:	60c3      	str	r3, [r0, #12]
 800274e:	6811      	ldr	r1, [r2, #0]
 8002750:	b159      	cbz	r1, 800276a <_dtoa_r+0x5a>
 8002752:	6852      	ldr	r2, [r2, #4]
 8002754:	604a      	str	r2, [r1, #4]
 8002756:	2301      	movs	r3, #1
 8002758:	4093      	lsls	r3, r2
 800275a:	608b      	str	r3, [r1, #8]
 800275c:	4648      	mov	r0, r9
 800275e:	f000 fef1 	bl	8003544 <_Bfree>
 8002762:	f8d9 301c 	ldr.w	r3, [r9, #28]
 8002766:	2200      	movs	r2, #0
 8002768:	601a      	str	r2, [r3, #0]
 800276a:	f1b7 0800 	subs.w	r8, r7, #0
 800276e:	bfb5      	itete	lt
 8002770:	2301      	movlt	r3, #1
 8002772:	2300      	movge	r3, #0
 8002774:	6023      	strlt	r3, [r4, #0]
 8002776:	6023      	strge	r3, [r4, #0]
 8002778:	4b9b      	ldr	r3, [pc, #620]	@ (80029e8 <_dtoa_r+0x2d8>)
 800277a:	bfbc      	itt	lt
 800277c:	f028 4800 	biclt.w	r8, r8, #2147483648	@ 0x80000000
 8002780:	f8cd 803c 	strlt.w	r8, [sp, #60]	@ 0x3c
 8002784:	ea33 0308 	bics.w	r3, r3, r8
 8002788:	d11a      	bne.n	80027c0 <_dtoa_r+0xb0>
 800278a:	9a13      	ldr	r2, [sp, #76]	@ 0x4c
 800278c:	f3c8 0813 	ubfx	r8, r8, #0, #20
 8002790:	f242 730f 	movw	r3, #9999	@ 0x270f
 8002794:	ea58 0806 	orrs.w	r8, r8, r6
 8002798:	6013      	str	r3, [r2, #0]
 800279a:	f000 8561 	beq.w	8003260 <_dtoa_r+0xb50>
 800279e:	9b23      	ldr	r3, [sp, #140]	@ 0x8c
 80027a0:	b953      	cbnz	r3, 80027b8 <_dtoa_r+0xa8>
 80027a2:	4b92      	ldr	r3, [pc, #584]	@ (80029ec <_dtoa_r+0x2dc>)
 80027a4:	e021      	b.n	80027ea <_dtoa_r+0xda>
 80027a6:	4b92      	ldr	r3, [pc, #584]	@ (80029f0 <_dtoa_r+0x2e0>)
 80027a8:	9300      	str	r3, [sp, #0]
 80027aa:	3308      	adds	r3, #8
 80027ac:	9a23      	ldr	r2, [sp, #140]	@ 0x8c
 80027ae:	6013      	str	r3, [r2, #0]
 80027b0:	9800      	ldr	r0, [sp, #0]
 80027b2:	b019      	add	sp, #100	@ 0x64
 80027b4:	e8bd 8ff0 	ldmia.w	sp!, {r4, r5, r6, r7, r8, r9, sl, fp, pc}
 80027b8:	4b8c      	ldr	r3, [pc, #560]	@ (80029ec <_dtoa_r+0x2dc>)
 80027ba:	9300      	str	r3, [sp, #0]
 80027bc:	3303      	adds	r3, #3
 80027be:	e7f5      	b.n	80027ac <_dtoa_r+0x9c>
 80027c0:	ed9d 7b0e 	vldr	d7, [sp, #56]	@ 0x38
 80027c4:	2200      	movs	r2, #0
 80027c6:	ec51 0b17 	vmov	r0, r1, d7
 80027ca:	2300      	movs	r3, #0
 80027cc:	ed8d 7b06 	vstr	d7, [sp, #24]
 80027d0:	f7ff f916 	bl	8001a00 <__aeabi_dcmpeq>
 80027d4:	4682      	mov	sl, r0
 80027d6:	b150      	cbz	r0, 80027ee <_dtoa_r+0xde>
 80027d8:	9a13      	ldr	r2, [sp, #76]	@ 0x4c
 80027da:	2301      	movs	r3, #1
 80027dc:	6013      	str	r3, [r2, #0]
 80027de:	9b23      	ldr	r3, [sp, #140]	@ 0x8c
 80027e0:	b113      	cbz	r3, 80027e8 <_dtoa_r+0xd8>
 80027e2:	9a23      	ldr	r2, [sp, #140]	@ 0x8c
 80027e4:	4b83      	ldr	r3, [pc, #524]	@ (80029f4 <_dtoa_r+0x2e4>)
 80027e6:	6013      	str	r3, [r2, #0]
 80027e8:	4b83      	ldr	r3, [pc, #524]	@ (80029f8 <_dtoa_r+0x2e8>)
 80027ea:	9300      	str	r3, [sp, #0]
 80027ec:	e7e0      	b.n	80027b0 <_dtoa_r+0xa0>
 80027ee:	ed9d 0b06 	vldr	d0, [sp, #24]
 80027f2:	aa16      	add	r2, sp, #88	@ 0x58
 80027f4:	a917      	add	r1, sp, #92	@ 0x5c
 80027f6:	4648      	mov	r0, r9
 80027f8:	f001 fa60 	bl	8003cbc <__d2b>
 80027fc:	ea5f 5418 	movs.w	r4, r8, lsr #20
 8002800:	9d16      	ldr	r5, [sp, #88]	@ 0x58
 8002802:	9001      	str	r0, [sp, #4]
 8002804:	d079      	beq.n	80028fa <_dtoa_r+0x1ea>
 8002806:	9b07      	ldr	r3, [sp, #28]
 8002808:	f8cd a050 	str.w	sl, [sp, #80]	@ 0x50
 800280c:	f3c3 0313 	ubfx	r3, r3, #0, #20
 8002810:	e9dd 0106 	ldrd	r0, r1, [sp, #24]
 8002814:	f043 537f 	orr.w	r3, r3, #1069547520	@ 0x3fc00000
 8002818:	f443 1340 	orr.w	r3, r3, #3145728	@ 0x300000
 800281c:	f2a4 34ff 	subw	r4, r4, #1023	@ 0x3ff
 8002820:	4619      	mov	r1, r3
 8002822:	2200      	movs	r2, #0
 8002824:	4b75      	ldr	r3, [pc, #468]	@ (80029fc <_dtoa_r+0x2ec>)
 8002826:	f7fe fccb 	bl	80011c0 <__aeabi_dsub>
 800282a:	a367      	add	r3, pc, #412	@ (adr r3, 80029c8 <_dtoa_r+0x2b8>)
 800282c:	e9d3 2300 	ldrd	r2, r3, [r3]
 8002830:	f7fe fe7e 	bl	8001530 <__aeabi_dmul>
 8002834:	a366      	add	r3, pc, #408	@ (adr r3, 80029d0 <_dtoa_r+0x2c0>)
 8002836:	e9d3 2300 	ldrd	r2, r3, [r3]
 800283a:	f7fe fcc3 	bl	80011c4 <__adddf3>
 800283e:	4606      	mov	r6, r0
 8002840:	4620      	mov	r0, r4
 8002842:	460f      	mov	r7, r1
 8002844:	f7fe fe0a 	bl	800145c <__aeabi_i2d>
 8002848:	a363      	add	r3, pc, #396	@ (adr r3, 80029d8 <_dtoa_r+0x2c8>)
 800284a:	e9d3 2300 	ldrd	r2, r3, [r3]
 800284e:	f7fe fe6f 	bl	8001530 <__aeabi_dmul>
 8002852:	4602      	mov	r2, r0
 8002854:	460b      	mov	r3, r1
 8002856:	4630      	mov	r0, r6
 8002858:	4639      	mov	r1, r7
 800285a:	f7fe fcb3 	bl	80011c4 <__adddf3>
 800285e:	4606      	mov	r6, r0
 8002860:	460f      	mov	r7, r1
 8002862:	f7ff f915 	bl	8001a90 <__aeabi_d2iz>
 8002866:	2200      	movs	r2, #0
 8002868:	4680      	mov	r8, r0
 800286a:	2300      	movs	r3, #0
 800286c:	4630      	mov	r0, r6
 800286e:	4639      	mov	r1, r7
 8002870:	f7ff f8d0 	bl	8001a14 <__aeabi_dcmplt>
 8002874:	b148      	cbz	r0, 800288a <_dtoa_r+0x17a>
 8002876:	4640      	mov	r0, r8
 8002878:	f7fe fdf0 	bl	800145c <__aeabi_i2d>
 800287c:	4632      	mov	r2, r6
 800287e:	463b      	mov	r3, r7
 8002880:	f7ff f8be 	bl	8001a00 <__aeabi_dcmpeq>
 8002884:	b908      	cbnz	r0, 800288a <_dtoa_r+0x17a>
 8002886:	f108 38ff 	add.w	r8, r8, #4294967295
 800288a:	f1b8 0f16 	cmp.w	r8, #22
 800288e:	d851      	bhi.n	8002934 <_dtoa_r+0x224>
 8002890:	4b5b      	ldr	r3, [pc, #364]	@ (8002a00 <_dtoa_r+0x2f0>)
 8002892:	eb03 03c8 	add.w	r3, r3, r8, lsl #3
 8002896:	e9d3 2300 	ldrd	r2, r3, [r3]
 800289a:	e9dd 0106 	ldrd	r0, r1, [sp, #24]
 800289e:	f7ff f8b9 	bl	8001a14 <__aeabi_dcmplt>
 80028a2:	2800      	cmp	r0, #0
 80028a4:	d048      	beq.n	8002938 <_dtoa_r+0x228>
 80028a6:	f108 38ff 	add.w	r8, r8, #4294967295
 80028aa:	2300      	movs	r3, #0
 80028ac:	9312      	str	r3, [sp, #72]	@ 0x48
 80028ae:	1b2d      	subs	r5, r5, r4
 80028b0:	1e6b      	subs	r3, r5, #1
 80028b2:	9308      	str	r3, [sp, #32]
 80028b4:	bf43      	ittte	mi
 80028b6:	2300      	movmi	r3, #0
 80028b8:	f1c5 0701 	rsbmi	r7, r5, #1
 80028bc:	9308      	strmi	r3, [sp, #32]
 80028be:	2700      	movpl	r7, #0
 80028c0:	f1b8 0f00 	cmp.w	r8, #0
 80028c4:	db3a      	blt.n	800293c <_dtoa_r+0x22c>
 80028c6:	9b08      	ldr	r3, [sp, #32]
 80028c8:	f8cd 8034 	str.w	r8, [sp, #52]	@ 0x34
 80028cc:	4443      	add	r3, r8
 80028ce:	9308      	str	r3, [sp, #32]
 80028d0:	2300      	movs	r3, #0
 80028d2:	9309      	str	r3, [sp, #36]	@ 0x24
 80028d4:	9b0a      	ldr	r3, [sp, #40]	@ 0x28
 80028d6:	2b09      	cmp	r3, #9
 80028d8:	d862      	bhi.n	80029a0 <_dtoa_r+0x290>
 80028da:	2b05      	cmp	r3, #5
 80028dc:	bfc4      	itt	gt
 80028de:	3b04      	subgt	r3, #4
 80028e0:	930a      	strgt	r3, [sp, #40]	@ 0x28
 80028e2:	9b0a      	ldr	r3, [sp, #40]	@ 0x28
 80028e4:	f1a3 0302 	sub.w	r3, r3, #2
 80028e8:	bfcc      	ite	gt
 80028ea:	2400      	movgt	r4, #0
 80028ec:	2401      	movle	r4, #1
 80028ee:	2b03      	cmp	r3, #3
 80028f0:	d862      	bhi.n	80029b8 <_dtoa_r+0x2a8>
 80028f2:	e8df f003 	tbb	[pc, r3]
 80028f6:	2b365351 			@ <UNDEFINED> instruction: 2b365351
 80028fa:	9c17      	ldr	r4, [sp, #92]	@ 0x5c
 80028fc:	442c      	add	r4, r5
 80028fe:	f204 4332 	addw	r3, r4, #1074	@ 0x432
 8002902:	2b20      	cmp	r3, #32
 8002904:	bfc1      	itttt	gt
 8002906:	f1c3 0340 	rsbgt	r3, r3, #64	@ 0x40
 800290a:	fa08 f803 	lslgt.w	r8, r8, r3
 800290e:	f204 4312 	addwgt	r3, r4, #1042	@ 0x412
 8002912:	fa26 f303 	lsrgt.w	r3, r6, r3
 8002916:	bfd6      	itet	le
 8002918:	f1c3 0320 	rsble	r3, r3, #32
 800291c:	ea48 0003 	orrgt.w	r0, r8, r3
 8002920:	fa06 f003 	lslle.w	r0, r6, r3
 8002924:	f7fe fd8a 	bl	800143c <__aeabi_ui2d>
 8002928:	2201      	movs	r2, #1
 800292a:	f1a1 73f8 	sub.w	r3, r1, #32505856	@ 0x1f00000
 800292e:	3c01      	subs	r4, #1
 8002930:	9214      	str	r2, [sp, #80]	@ 0x50
 8002932:	e775      	b.n	8002820 <_dtoa_r+0x110>
 8002934:	2301      	movs	r3, #1
 8002936:	e7b9      	b.n	80028ac <_dtoa_r+0x19c>
 8002938:	9012      	str	r0, [sp, #72]	@ 0x48
 800293a:	e7b8      	b.n	80028ae <_dtoa_r+0x19e>
 800293c:	f1c8 0300 	rsb	r3, r8, #0
 8002940:	9309      	str	r3, [sp, #36]	@ 0x24
 8002942:	2300      	movs	r3, #0
 8002944:	eba7 0708 	sub.w	r7, r7, r8
 8002948:	930d      	str	r3, [sp, #52]	@ 0x34
 800294a:	e7c3      	b.n	80028d4 <_dtoa_r+0x1c4>
 800294c:	2301      	movs	r3, #1
 800294e:	930b      	str	r3, [sp, #44]	@ 0x2c
 8002950:	9b0c      	ldr	r3, [sp, #48]	@ 0x30
 8002952:	4443      	add	r3, r8
 8002954:	9305      	str	r3, [sp, #20]
 8002956:	3301      	adds	r3, #1
 8002958:	2b01      	cmp	r3, #1
 800295a:	9304      	str	r3, [sp, #16]
 800295c:	bfb8      	it	lt
 800295e:	2301      	movlt	r3, #1
 8002960:	e006      	b.n	8002970 <_dtoa_r+0x260>
 8002962:	2301      	movs	r3, #1
 8002964:	930b      	str	r3, [sp, #44]	@ 0x2c
 8002966:	9b0c      	ldr	r3, [sp, #48]	@ 0x30
 8002968:	2b00      	cmp	r3, #0
 800296a:	dd28      	ble.n	80029be <_dtoa_r+0x2ae>
 800296c:	e9cd 3304 	strd	r3, r3, [sp, #16]
 8002970:	f8d9 001c 	ldr.w	r0, [r9, #28]
 8002974:	2100      	movs	r1, #0
 8002976:	2204      	movs	r2, #4
 8002978:	f102 0514 	add.w	r5, r2, #20
 800297c:	429d      	cmp	r5, r3
 800297e:	d943      	bls.n	8002a08 <_dtoa_r+0x2f8>
 8002980:	6041      	str	r1, [r0, #4]
 8002982:	4648      	mov	r0, r9
 8002984:	f000 fda0 	bl	80034c8 <_Balloc>
 8002988:	9000      	str	r0, [sp, #0]
 800298a:	2800      	cmp	r0, #0
 800298c:	d13f      	bne.n	8002a0e <_dtoa_r+0x2fe>
 800298e:	4b1d      	ldr	r3, [pc, #116]	@ (8002a04 <_dtoa_r+0x2f4>)
 8002990:	4602      	mov	r2, r0
 8002992:	f240 11af 	movw	r1, #431	@ 0x1af
 8002996:	e6d2      	b.n	800273e <_dtoa_r+0x2e>
 8002998:	2300      	movs	r3, #0
 800299a:	e7e3      	b.n	8002964 <_dtoa_r+0x254>
 800299c:	2300      	movs	r3, #0
 800299e:	e7d6      	b.n	800294e <_dtoa_r+0x23e>
 80029a0:	2401      	movs	r4, #1
 80029a2:	2300      	movs	r3, #0
 80029a4:	e9cd 340a 	strd	r3, r4, [sp, #40]	@ 0x28
 80029a8:	f04f 33ff 	mov.w	r3, #4294967295
 80029ac:	2200      	movs	r2, #0
 80029ae:	e9cd 3304 	strd	r3, r3, [sp, #16]
 80029b2:	920c      	str	r2, [sp, #48]	@ 0x30
 80029b4:	2312      	movs	r3, #18
 80029b6:	e7db      	b.n	8002970 <_dtoa_r+0x260>
 80029b8:	2301      	movs	r3, #1
 80029ba:	930b      	str	r3, [sp, #44]	@ 0x2c
 80029bc:	e7f4      	b.n	80029a8 <_dtoa_r+0x298>
 80029be:	2301      	movs	r3, #1
 80029c0:	e9cd 3304 	strd	r3, r3, [sp, #16]
 80029c4:	930c      	str	r3, [sp, #48]	@ 0x30
 80029c6:	e7d3      	b.n	8002970 <_dtoa_r+0x260>
 80029c8:	636f4361 			@ <UNDEFINED> instruction: 636f4361
 80029cc:	3fd287a7 			@ <UNDEFINED> instruction: 3fd287a7
 80029d0:	8b60c8b3 			@ <UNDEFINED> instruction: 8b60c8b3
 80029d4:	3fc68a28 			@ <UNDEFINED> instruction: 3fc68a28
 80029d8:	509f79fb 			@ <UNDEFINED> instruction: 509f79fb
 80029dc:	3fd34413 			@ <UNDEFINED> instruction: 3fd34413
 80029e0:	0800540d 			@ <UNDEFINED> instruction: 0800540d
 80029e4:	08005424 			@ <UNDEFINED> instruction: 08005424
 80029e8:	7ff00000 			@ <UNDEFINED> instruction: 7ff00000
 80029ec:	08005409 			@ <UNDEFINED> instruction: 08005409
 80029f0:	08005400 			@ <UNDEFINED> instruction: 08005400
 80029f4:	080053dd 			@ <UNDEFINED> instruction: 080053dd
 80029f8:	080053dc 			@ <UNDEFINED> instruction: 080053dc
 80029fc:	3ff80000 			@ <UNDEFINED> instruction: 3ff80000
 8002a00:	080055a0 			@ <UNDEFINED> instruction: 080055a0
 8002a04:	0800547d 			@ <UNDEFINED> instruction: 0800547d
 8002a08:	3101      	adds	r1, #1
 8002a0a:	0052      	lsls	r2, r2, #1
 8002a0c:	e7b4      	b.n	8002978 <_dtoa_r+0x268>
 8002a0e:	f8d9 301c 	ldr.w	r3, [r9, #28]
 8002a12:	9a00      	ldr	r2, [sp, #0]
 8002a14:	601a      	str	r2, [r3, #0]
 8002a16:	9b04      	ldr	r3, [sp, #16]
 8002a18:	2b0e      	cmp	r3, #14
 8002a1a:	d875      	bhi.n	8002b08 <_dtoa_r+0x3f8>
 8002a1c:	2c00      	cmp	r4, #0
 8002a1e:	d073      	beq.n	8002b08 <_dtoa_r+0x3f8>
 8002a20:	f1b8 0f00 	cmp.w	r8, #0
 8002a24:	f340 80c4 	ble.w	8002bb0 <_dtoa_r+0x4a0>
 8002a28:	4b9f      	ldr	r3, [pc, #636]	@ (8002ca8 <_dtoa_r+0x598>)
 8002a2a:	f008 020f 	and.w	r2, r8, #15
 8002a2e:	eb03 03c2 	add.w	r3, r3, r2, lsl #3
 8002a32:	f418 7f80 	tst.w	r8, #256	@ 0x100
 8002a36:	e9d3 ab00 	ldrd	sl, fp, [r3]
 8002a3a:	ea4f 1528 	mov.w	r5, r8, asr #4
 8002a3e:	f000 80a3 	beq.w	8002b88 <_dtoa_r+0x478>
 8002a42:	4b9a      	ldr	r3, [pc, #616]	@ (8002cac <_dtoa_r+0x59c>)
 8002a44:	e9dd 0106 	ldrd	r0, r1, [sp, #24]
 8002a48:	e9d3 2308 	ldrd	r2, r3, [r3, #32]
 8002a4c:	f7fe fe9a 	bl	8001784 <__aeabi_ddiv>
 8002a50:	e9cd 0102 	strd	r0, r1, [sp, #8]
 8002a54:	f005 050f 	and.w	r5, r5, #15
 8002a58:	2403      	movs	r4, #3
 8002a5a:	4e94      	ldr	r6, [pc, #592]	@ (8002cac <_dtoa_r+0x59c>)
 8002a5c:	2d00      	cmp	r5, #0
 8002a5e:	f040 8099 	bne.w	8002b94 <_dtoa_r+0x484>
 8002a62:	4652      	mov	r2, sl
 8002a64:	465b      	mov	r3, fp
 8002a66:	e9dd 0102 	ldrd	r0, r1, [sp, #8]
 8002a6a:	f7fe fe8b 	bl	8001784 <__aeabi_ddiv>
 8002a6e:	4682      	mov	sl, r0
 8002a70:	468b      	mov	fp, r1
 8002a72:	9b12      	ldr	r3, [sp, #72]	@ 0x48
 8002a74:	2b00      	cmp	r3, #0
 8002a76:	f000 80c3 	beq.w	8002c00 <_dtoa_r+0x4f0>
 8002a7a:	4b8d      	ldr	r3, [pc, #564]	@ (8002cb0 <_dtoa_r+0x5a0>)
 8002a7c:	2200      	movs	r2, #0
 8002a7e:	4650      	mov	r0, sl
 8002a80:	4659      	mov	r1, fp
 8002a82:	f7fe ffc7 	bl	8001a14 <__aeabi_dcmplt>
 8002a86:	2800      	cmp	r0, #0
 8002a88:	f000 80ba 	beq.w	8002c00 <_dtoa_r+0x4f0>
 8002a8c:	9b04      	ldr	r3, [sp, #16]
 8002a8e:	2b00      	cmp	r3, #0
 8002a90:	f000 80b6 	beq.w	8002c00 <_dtoa_r+0x4f0>
 8002a94:	9b05      	ldr	r3, [sp, #20]
 8002a96:	2b00      	cmp	r3, #0
 8002a98:	dd36      	ble.n	8002b08 <_dtoa_r+0x3f8>
 8002a9a:	f108 33ff 	add.w	r3, r8, #4294967295
 8002a9e:	9302      	str	r3, [sp, #8]
 8002aa0:	4650      	mov	r0, sl
 8002aa2:	4659      	mov	r1, fp
 8002aa4:	4b83      	ldr	r3, [pc, #524]	@ (8002cb4 <_dtoa_r+0x5a4>)
 8002aa6:	2200      	movs	r2, #0
 8002aa8:	f7fe fd42 	bl	8001530 <__aeabi_dmul>
 8002aac:	9e05      	ldr	r6, [sp, #20]
 8002aae:	4682      	mov	sl, r0
 8002ab0:	468b      	mov	fp, r1
 8002ab2:	3401      	adds	r4, #1
 8002ab4:	4620      	mov	r0, r4
 8002ab6:	f7fe fcd1 	bl	800145c <__aeabi_i2d>
 8002aba:	4652      	mov	r2, sl
 8002abc:	465b      	mov	r3, fp
 8002abe:	f7fe fd37 	bl	8001530 <__aeabi_dmul>
 8002ac2:	4b7d      	ldr	r3, [pc, #500]	@ (8002cb8 <_dtoa_r+0x5a8>)
 8002ac4:	2200      	movs	r2, #0
 8002ac6:	f7fe fb7d 	bl	80011c4 <__adddf3>
 8002aca:	4604      	mov	r4, r0
 8002acc:	f1a1 7550 	sub.w	r5, r1, #54525952	@ 0x3400000
 8002ad0:	e9cd 4510 	strd	r4, r5, [sp, #64]	@ 0x40
 8002ad4:	2e00      	cmp	r6, #0
 8002ad6:	f040 8097 	bne.w	8002c08 <_dtoa_r+0x4f8>
 8002ada:	4b78      	ldr	r3, [pc, #480]	@ (8002cbc <_dtoa_r+0x5ac>)
 8002adc:	2200      	movs	r2, #0
 8002ade:	4650      	mov	r0, sl
 8002ae0:	4659      	mov	r1, fp
 8002ae2:	f7fe fb6d 	bl	80011c0 <__aeabi_dsub>
 8002ae6:	4622      	mov	r2, r4
 8002ae8:	462b      	mov	r3, r5
 8002aea:	4682      	mov	sl, r0
 8002aec:	468b      	mov	fp, r1
 8002aee:	f7fe ffaf 	bl	8001a50 <__aeabi_dcmpgt>
 8002af2:	2800      	cmp	r0, #0
 8002af4:	f040 82bd 	bne.w	8003072 <_dtoa_r+0x962>
 8002af8:	4622      	mov	r2, r4
 8002afa:	f105 4300 	add.w	r3, r5, #2147483648	@ 0x80000000
 8002afe:	4650      	mov	r0, sl
 8002b00:	4659      	mov	r1, fp
 8002b02:	f7fe ff87 	bl	8001a14 <__aeabi_dcmplt>
 8002b06:	bb20      	cbnz	r0, 8002b52 <_dtoa_r+0x442>
 8002b08:	9b17      	ldr	r3, [sp, #92]	@ 0x5c
 8002b0a:	2b00      	cmp	r3, #0
 8002b0c:	f2c0 818d 	blt.w	8002e2a <_dtoa_r+0x71a>
 8002b10:	f1b8 0f0e 	cmp.w	r8, #14
 8002b14:	f300 8189 	bgt.w	8002e2a <_dtoa_r+0x71a>
 8002b18:	4b63      	ldr	r3, [pc, #396]	@ (8002ca8 <_dtoa_r+0x598>)
 8002b1a:	eb03 03c8 	add.w	r3, r3, r8, lsl #3
 8002b1e:	e9d3 ab00 	ldrd	sl, fp, [r3]
 8002b22:	9b0c      	ldr	r3, [sp, #48]	@ 0x30
 8002b24:	2b00      	cmp	r3, #0
 8002b26:	f280 811b 	bge.w	8002d60 <_dtoa_r+0x650>
 8002b2a:	9b04      	ldr	r3, [sp, #16]
 8002b2c:	2b00      	cmp	r3, #0
 8002b2e:	f300 8117 	bgt.w	8002d60 <_dtoa_r+0x650>
 8002b32:	d10e      	bne.n	8002b52 <_dtoa_r+0x442>
 8002b34:	4b61      	ldr	r3, [pc, #388]	@ (8002cbc <_dtoa_r+0x5ac>)
 8002b36:	2200      	movs	r2, #0
 8002b38:	4650      	mov	r0, sl
 8002b3a:	4659      	mov	r1, fp
 8002b3c:	f7fe fcf8 	bl	8001530 <__aeabi_dmul>
 8002b40:	4602      	mov	r2, r0
 8002b42:	460b      	mov	r3, r1
 8002b44:	e9dd 0106 	ldrd	r0, r1, [sp, #24]
 8002b48:	f7fe ff6e 	bl	8001a28 <__aeabi_dcmple>
 8002b4c:	2800      	cmp	r0, #0
 8002b4e:	f000 8293 	beq.w	8003078 <_dtoa_r+0x968>
 8002b52:	2500      	movs	r5, #0
 8002b54:	462c      	mov	r4, r5
 8002b56:	9b0c      	ldr	r3, [sp, #48]	@ 0x30
 8002b58:	9e00      	ldr	r6, [sp, #0]
 8002b5a:	43db      	mvns	r3, r3
 8002b5c:	9302      	str	r3, [sp, #8]
 8002b5e:	4627      	mov	r7, r4
 8002b60:	2400      	movs	r4, #0
 8002b62:	4629      	mov	r1, r5
 8002b64:	4648      	mov	r0, r9
 8002b66:	f000 fced 	bl	8003544 <_Bfree>
 8002b6a:	2f00      	cmp	r7, #0
 8002b6c:	f000 80ee 	beq.w	8002d4c <_dtoa_r+0x63c>
 8002b70:	b12c      	cbz	r4, 8002b7e <_dtoa_r+0x46e>
 8002b72:	42bc      	cmp	r4, r7
 8002b74:	d003      	beq.n	8002b7e <_dtoa_r+0x46e>
 8002b76:	4621      	mov	r1, r4
 8002b78:	4648      	mov	r0, r9
 8002b7a:	f000 fce3 	bl	8003544 <_Bfree>
 8002b7e:	4639      	mov	r1, r7
 8002b80:	4648      	mov	r0, r9
 8002b82:	f000 fcdf 	bl	8003544 <_Bfree>
 8002b86:	e0e1      	b.n	8002d4c <_dtoa_r+0x63c>
 8002b88:	ed9d 7b06 	vldr	d7, [sp, #24]
 8002b8c:	2402      	movs	r4, #2
 8002b8e:	ed8d 7b02 	vstr	d7, [sp, #8]
 8002b92:	e762      	b.n	8002a5a <_dtoa_r+0x34a>
 8002b94:	07e9      	lsls	r1, r5, #31
 8002b96:	d508      	bpl.n	8002baa <_dtoa_r+0x49a>
 8002b98:	4650      	mov	r0, sl
 8002b9a:	4659      	mov	r1, fp
 8002b9c:	e9d6 2300 	ldrd	r2, r3, [r6]
 8002ba0:	f7fe fcc6 	bl	8001530 <__aeabi_dmul>
 8002ba4:	3401      	adds	r4, #1
 8002ba6:	4682      	mov	sl, r0
 8002ba8:	468b      	mov	fp, r1
 8002baa:	106d      	asrs	r5, r5, #1
 8002bac:	3608      	adds	r6, #8
 8002bae:	e755      	b.n	8002a5c <_dtoa_r+0x34c>
 8002bb0:	d022      	beq.n	8002bf8 <_dtoa_r+0x4e8>
 8002bb2:	f1c8 0500 	rsb	r5, r8, #0
 8002bb6:	4b3c      	ldr	r3, [pc, #240]	@ (8002ca8 <_dtoa_r+0x598>)
 8002bb8:	4e3c      	ldr	r6, [pc, #240]	@ (8002cac <_dtoa_r+0x59c>)
 8002bba:	f005 020f 	and.w	r2, r5, #15
 8002bbe:	eb03 03c2 	add.w	r3, r3, r2, lsl #3
 8002bc2:	e9d3 2300 	ldrd	r2, r3, [r3]
 8002bc6:	e9dd 0106 	ldrd	r0, r1, [sp, #24]
 8002bca:	f7fe fcb1 	bl	8001530 <__aeabi_dmul>
